ccopy_reg
_reconstructor
p1
(ccanto.feedparser_builtin
FeedParserDict
p2
c__builtin__
dict
p3
(dp4
S'feed'
p5
g1
(g2
g3
(dp6
S'updated'
p7
V2010-09-18T14:34:31Z
p8
sS'subtitle'
p9
Vawesome window manager
p10
sS'updated_parsed'
p11
ctime
struct_time
p12
((I2010
I9
I18
I14
I34
I31
I5
I261
I0
t(dtRp13
sS'links'
p14
(lp15
g1
(g2
g3
(dp16
S'href'
p17
Vhttp://git.naquadah.org/?p=awesome.git;a=summary
p18
sS'type'
p19
Vtext/html
p20
sS'rel'
p21
Valternate
p22
stRp23
ag1
(g2
g3
(dp24
S'href'
p25
Vhttp://git.naquadah.org/?p=awesome.git;a=atom
p26
sS'type'
p27
Vapplication/atom+xml
p28
sS'rel'
p29
Vself
p30
stRp31
asS'author'
p32
VJulien Danjou
p33
sS'title'
p34
Vgit.naquadah.org Git - awesome.git/atom log
p35
sS'generator_detail'
p36
g1
(g2
g3
(dp37
S'version'
p38
V1.7.1/1.7.1
p39
sS'name'
p40
Vgitweb
p41
stRp42
sS'subtitle_detail'
p43
g1
(g2
g3
(dp44
S'base'
p45
S'http://git.naquadah.org/?p=awesome.git;a=atom'
p46
sS'type'
p47
S'text/plain'
p48
sS'value'
p49
g10
sS'language'
p50
NstRp51
sS'title_detail'
p52
g1
(g2
g3
(dp53
g45
S'http://git.naquadah.org/?p=awesome.git;a=atom'
p54
sg47
S'text/plain'
p55
sg49
g35
sg50
NstRp56
sS'link'
p57
g18
sS'logo'
p58
Vhttp://git.naquadah.org/git-logo.png
p59
sS'author_detail'
p60
g1
(g2
g3
(dp61
g40
g33
stRp62
sS'generator'
p63
g41
sS'id'
p64
Vhttp://git.naquadah.org/?p=awesome.git
p65
sS'icon'
p66
Vhttp://git.naquadah.org/git-favicon.png
p67
stRp68
sS'status'
p69
I200
sg7
g12
((I2010
I9
I18
I14
I34
I31
I5
I261
I0
t(dtRp70
sS'encoding'
p71
S'utf-8'
p72
sS'bozo'
p73
I0
sS'canto_version'
p74
(I0
I7
I10
tp75
sS'canto_update'
p76
F1284903478.118489
sS'headers'
p77
(dp78
S'transfer-encoding'
p79
S'chunked'
p80
sS'server'
p81
S'Apache/2.2.9 (Debian) mod_ssl/2.2.9 OpenSSL/0.9.8g'
p82
sS'last-modified'
p83
S'Sat, 18 Sep 2010 14:34:31 GMT'
p84
sS'connection'
p85
S'close'
p86
sS'date'
p87
S'Sun, 19 Sep 2010 13:37:55 GMT'
p88
sS'content-type'
p89
S'application/atom+xml; charset=utf-8'
p90
ssS'version'
p91
S'atom10'
p92
sS'canto_state'
p93
(lp94
sS'href'
p95
S'http://git.naquadah.org/?p=awesome.git;a=atom'
p96
sS'namespaces'
p97
(dp98
S''
Vhttp://www.w3.org/2005/Atom
p99
sS'xhtml'
p100
Vhttp://www.w3.org/1999/xhtml
p101
ssS'entries'
p102
(lp103
g1
(g2
g3
(dp104
g7
V2010-09-18T14:34:31Z
p105
sg9
V<div>\u000a<pre>\u000aNaughty: Add a missing "local"\u000a\u000aSigned-off-by: Uli Schlachter &lt;psychon@znc.in&gt;\u000a</pre><ul>\u000a<li>[<a href="http://git.naquadah.org/?p=awesome.git;a=blobdiff;f=lib/naughty.lua.in;fp=lib/naughty.lua.in;h=5d2b63733915706415c9fcd9a74df056be9d0efc;hp=c378c2a460ee0c3c5b4e3828aa205de12b0a01c1;hb=825efd21b3517c12c94da84ca1e7b8cbd9ed6151;hpb=87d869fdeb2671e2faa1caebd37831249aa0e456" title="diff">D</a><a href="http://git.naquadah.org/?p=awesome.git;a=history;f=lib/naughty.lua.in;h=825efd21b3517c12c94da84ca1e7b8cbd9ed6151" title="history">H</a>] lib/naughty.lua.in</li>\u000a</ul>\u000a</div>
p106
sg11
g12
((I2010
I9
I18
I14
I34
I31
I5
I261
I0
t(dtRp107
sS'published_parsed'
p108
g12
((I2010
I9
I18
I14
I34
I31
I5
I261
I0
t(dtRp109
sg34
VNaughty: Add a missing "local"
p110
sg32
VUli Schlachter (psychon@znc.in)
p111
sg14
(lp112
g1
(g2
g3
(dp113
S'href'
p114
Vhttp://git.naquadah.org/?p=awesome.git;a=commitdiff;h=825efd21b3517c12c94da84ca1e7b8cbd9ed6151
p115
sS'type'
p116
Vtext/html
p117
sS'rel'
p118
Valternate
p119
stRp120
asS'content'
p121
(lp122
g1
(g2
g3
(dp123
g45
Vhttp://git.naquadah.org/
p124
sg47
S'application/xhtml+xml'
p125
sg49
g106
sg50
NstRp126
asS'title_detail'
p127
g1
(g2
g3
(dp128
g45
S'http://git.naquadah.org/?p=awesome.git;a=atom'
p129
sg47
S'text/html'
p130
sg49
g110
sg50
NstRp131
sg57
g115
sS'contributors'
p132
(lp133
g1
(g2
g3
(dp134
g40
VUli Schlachter
p135
sS'email'
p136
Vpsychon@znc.in
p137
stRp138
asS'published'
p139
V2010-09-18T14:34:31Z
p140
sg93
(lp141
Vgit.naquadah.org Git - awesome.git/atom log
p142
aV*
aS'read'
p143
asS'author_detail'
p144
g1
(g2
g3
(dp145
g40
VUli Schlachter
p146
sg136
Vpsychon@znc.in
p147
stRp148
sS'id'
p149
Vhttp://git.naquadah.org/?p=awesome.git;a=commitdiff;h=825efd21b3517c12c94da84ca1e7b8cbd9ed6151
p150
stRp151
ag1
(g2
g3
(dp152
g7
V2010-09-18T14:01:44Z
p153
sg9
V<div>\u000a<pre>\u000aDelete the randr version reply\u000a\u000aSigned-off-by: Uli Schlachter &lt;psychon@znc.in&gt;\u000a</pre><ul>\u000a<li>[<a href="http://git.naquadah.org/?p=awesome.git;a=blobdiff;f=screen.c;fp=screen.c;h=092039538f9b5873df4fea630cc219dfd64fa257;hp=75475305f758000f831f1714bb8f8b3952401388;hb=87d869fdeb2671e2faa1caebd37831249aa0e456;hpb=49b4573bc874a714315f1990acae455f9a608d94" title="diff">D</a><a href="http://git.naquadah.org/?p=awesome.git;a=history;f=screen.c;h=87d869fdeb2671e2faa1caebd37831249aa0e456" title="history">H</a>] screen.c</li>\u000a</ul>\u000a</div>
p154
sg11
g12
((I2010
I9
I18
I14
I1
I44
I5
I261
I0
t(dtRp155
sg108
g12
((I2010
I9
I18
I14
I1
I44
I5
I261
I0
t(dtRp156
sg34
VDelete the randr version reply
p157
sg32
VUli Schlachter (psychon@znc.in)
p158
sg14
(lp159
g1
(g2
g3
(dp160
S'href'
p161
Vhttp://git.naquadah.org/?p=awesome.git;a=commitdiff;h=87d869fdeb2671e2faa1caebd37831249aa0e456
p162
sS'type'
p163
Vtext/html
p164
sS'rel'
p165
Valternate
p166
stRp167
asg121
(lp168
g1
(g2
g3
(dp169
g45
Vhttp://git.naquadah.org/
p170
sg47
g125
sg49
g154
sg50
NstRp171
asS'title_detail'
p172
g1
(g2
g3
(dp173
g45
S'http://git.naquadah.org/?p=awesome.git;a=atom'
p174
sg47
g130
sg49
g157
sg50
NstRp175
sg57
g162
sg132
(lp176
g1
(g2
g3
(dp177
g40
VUli Schlachter
p178
sg136
Vpsychon@znc.in
p179
stRp180
asg139
V2010-09-18T14:01:44Z
p181
sg93
(lp182
g142
aV*
ag143
asS'author_detail'
p183
g1
(g2
g3
(dp184
g40
VUli Schlachter
p185
sg136
Vpsychon@znc.in
p186
stRp187
sS'id'
p188
Vhttp://git.naquadah.org/?p=awesome.git;a=commitdiff;h=87d869fdeb2671e2faa1caebd37831249aa0e456
p189
stRp190
ag1
(g2
g3
(dp191
g7
V2010-09-18T10:27:09Z
p192
sg9
V<div>\u000a<pre>\u000aawful.widget: Stop using named colors\u000a\u000aThose were removed a while ago already.\u000a\u000aSigned-off-by: Uli Schlachter &lt;psychon@znc.in&gt;\u000a</pre><ul>\u000a<li>[<a href="http://git.naquadah.org/?p=awesome.git;a=blobdiff;f=lib/awful/widget/graph.lua.in;fp=lib/awful/widget/graph.lua.in;h=df21886ea32ee3d619005132cc82481f6a090a46;hp=85a6fe2f5019f83f63ea78f32086d98dfc19f763;hb=49b4573bc874a714315f1990acae455f9a608d94;hpb=8701295e6c92b632b98fcf6d80857e228c61efd5" title="diff">D</a><a href="http://git.naquadah.org/?p=awesome.git;a=history;f=lib/awful/widget/graph.lua.in;h=49b4573bc874a714315f1990acae455f9a608d94" title="history">H</a>] lib/awful/widget/graph.lua.in</li>\u000a<li>[<a href="http://git.naquadah.org/?p=awesome.git;a=blobdiff;f=lib/awful/widget/progressbar.lua.in;fp=lib/awful/widget/progressbar.lua.in;h=1b45bca74b6fe52a8f09cc1bfd940a53cf5371fe;hp=c4e6a94026670ad026fb7db78cca2930fcfcd720;hb=49b4573bc874a714315f1990acae455f9a608d94;hpb=8701295e6c92b632b98fcf6d80857e228c61efd5" title="diff">D</a><a href="http://git.naquadah.org/?p=awesome.git;a=history;f=lib/awful/widget/progressbar.lua.in;h=49b4573bc874a714315f1990acae455f9a608d94" title="history">H</a>] lib/awful/widget/progressbar.lua.in</li>\u000a</ul>\u000a</div>
p193
sg11
g12
((I2010
I9
I18
I10
I27
I9
I5
I261
I0
t(dtRp194
sg108
g12
((I2010
I9
I18
I10
I27
I9
I5
I261
I0
t(dtRp195
sg34
Vawful.widget: Stop using named colors
p196
sg32
VUli Schlachter (psychon@znc.in)
p197
sg14
(lp198
g1
(g2
g3
(dp199
S'href'
p200
Vhttp://git.naquadah.org/?p=awesome.git;a=commitdiff;h=49b4573bc874a714315f1990acae455f9a608d94
p201
sS'type'
p202
Vtext/html
p203
sS'rel'
p204
Valternate
p205
stRp206
asg121
(lp207
g1
(g2
g3
(dp208
g45
Vhttp://git.naquadah.org/
p209
sg47
g125
sg49
g193
sg50
NstRp210
asS'title_detail'
p211
g1
(g2
g3
(dp212
g45
S'http://git.naquadah.org/?p=awesome.git;a=atom'
p213
sg47
g130
sg49
g196
sg50
NstRp214
sg57
g201
sg132
(lp215
g1
(g2
g3
(dp216
g40
VUli Schlachter
p217
sg136
Vpsychon@znc.in
p218
stRp219
asg139
V2010-09-18T10:27:09Z
p220
sg93
(lp221
g142
aV*
ag143
asS'author_detail'
p222
g1
(g2
g3
(dp223
g40
VUli Schlachter
p224
sg136
Vpsychon@znc.in
p225
stRp226
sS'id'
p227
Vhttp://git.naquadah.org/?p=awesome.git;a=commitdiff;h=49b4573bc874a714315f1990acae455f9a608d94
p228
stRp229
ag1
(g2
g3
(dp230
g7
V2010-09-17T15:10:53Z
p231
sg9
V<div>\u000a<pre>\u000aTrack the number of objects\u000a\u000aWith this patch, we track the number of objects that are alive for any class.\u000aThis information can be accessed via class.instances()\u000a\u000aFor example:\u000a\u000a  print("wiboxes", wibox.instances())\u000a  print("widgets", widget.instances())\u000a\u000aSigned-off-by: Uli Schlachter &lt;psychon@znc.in&gt;\u000a</pre><ul>\u000a<li>[<a href="http://git.naquadah.org/?p=awesome.git;a=blobdiff;f=common/luaclass.c;fp=common/luaclass.c;h=53f6e85e3581293df0c637eb18d1e63403686ee3;hp=6214c262515b899067ab4ce13c4d51713857c291;hb=8701295e6c92b632b98fcf6d80857e228c61efd5;hpb=c368b848176d3201f4763101de0de544fa7be7b5" title="diff">D</a><a href="http://git.naquadah.org/?p=awesome.git;a=history;f=common/luaclass.c;h=8701295e6c92b632b98fcf6d80857e228c61efd5" title="history">H</a>] common/luaclass.c</li>\u000a<li>[<a href="http://git.naquadah.org/?p=awesome.git;a=blobdiff;f=common/luaclass.h;fp=common/luaclass.h;h=3186416e9f5095bc2afd275ed116c9fd78884325;hp=db1f2cf26c832c97065b80084405c97bcbf1ad56;hb=8701295e6c92b632b98fcf6d80857e228c61efd5;hpb=c368b848176d3201f4763101de0de544fa7be7b5" title="diff">D</a><a href="http://git.naquadah.org/?p=awesome.git;a=history;f=common/luaclass.h;h=8701295e6c92b632b98fcf6d80857e228c61efd5" title="history">H</a>] common/luaclass.h</li>\u000a<li>[<a href="http://git.naquadah.org/?p=awesome.git;a=blobdiff;f=common/luaobject.h;fp=common/luaobject.h;h=3761e12b0bc70388c35895304ec17034d1367611;hp=26ed2c92cabcf67deb644d8842f09290bfd769c3;hb=8701295e6c92b632b98fcf6d80857e228c61efd5;hpb=c368b848176d3201f4763101de0de544fa7be7b5" title="diff">D</a><a href="http://git.naquadah.org/?p=awesome.git;a=history;f=common/luaobject.h;h=8701295e6c92b632b98fcf6d80857e228c61efd5" title="history">H</a>] common/luaobject.h</li>\u000a<li>[<a href="http://git.naquadah.org/?p=awesome.git;a=blobdiff;f=luadoc/button.lua;fp=luadoc/button.lua;h=124dc84d003956c093820e9365c20d32a9139c2a;hp=20103e0a999335d2e73149e221bb92331de80a7a;hb=8701295e6c92b632b98fcf6d80857e228c61efd5;hpb=c368b848176d3201f4763101de0de544fa7be7b5" title="diff">D</a><a href="http://git.naquadah.org/?p=awesome.git;a=history;f=luadoc/button.lua;h=8701295e6c92b632b98fcf6d80857e228c61efd5" title="history">H</a>] luadoc/button.lua</li>\u000a<li>[<a href="http://git.naquadah.org/?p=awesome.git;a=blobdiff;f=luadoc/client.lua;fp=luadoc/client.lua;h=788d0de12679cccde826f110151818558017dc83;hp=ba0586a74c3170afb8823275d9f757869079c106;hb=8701295e6c92b632b98fcf6d80857e228c61efd5;hpb=c368b848176d3201f4763101de0de544fa7be7b5" title="diff">D</a><a href="http://git.naquadah.org/?p=awesome.git;a=history;f=luadoc/client.lua;h=8701295e6c92b632b98fcf6d80857e228c61efd5" title="history">H</a>] luadoc/client.lua</li>\u000a<li>[<a href="http://git.naquadah.org/?p=awesome.git;a=blobdiff;f=luadoc/image.lua;fp=luadoc/image.lua;h=7e24a8d2a7608c709d8adefeadb5cb6bfdb3a82f;hp=6e1edf6cee2e5da401055a8d3e509d574b4d7f89;hb=8701295e6c92b632b98fcf6d80857e228c61efd5;hpb=c368b848176d3201f4763101de0de544fa7be7b5" title="diff">D</a><a href="http://git.naquadah.org/?p=awesome.git;a=history;f=luadoc/image.lua;h=8701295e6c92b632b98fcf6d80857e228c61efd5" title="history">H</a>] luadoc/image.lua</li>\u000a<li>[<a href="http://git.naquadah.org/?p=awesome.git;a=blobdiff;f=luadoc/key.lua;fp=luadoc/key.lua;h=c4a6a4e306f3eb88b7e36f65d8761e7870c795d7;hp=810f6e23b323b9335b1def124b52224fd5636c02;hb=8701295e6c92b632b98fcf6d80857e228c61efd5;hpb=c368b848176d3201f4763101de0de544fa7be7b5" title="diff">D</a><a href="http://git.naquadah.org/?p=awesome.git;a=history;f=luadoc/key.lua;h=8701295e6c92b632b98fcf6d80857e228c61efd5" title="history">H</a>] luadoc/key.lua</li>\u000a<li>[<a href="http://git.naquadah.org/?p=awesome.git;a=blobdiff;f=luadoc/tag.lua;fp=luadoc/tag.lua;h=69b4046e81ca653925b021720369b5ea19bacbc3;hp=349d3f62e56aafe1ccf3093ed72e44b982951284;hb=8701295e6c92b632b98fcf6d80857e228c61efd5;hpb=c368b848176d3201f4763101de0de544fa7be7b5" title="diff">D</a><a href="http://git.naquadah.org/?p=awesome.git;a=history;f=luadoc/tag.lua;h=8701295e6c92b632b98fcf6d80857e228c61efd5" title="history">H</a>] luadoc/tag.lua</li>\u000a<li>[<a href="http://git.naquadah.org/?p=awesome.git;a=blobdiff;f=luadoc/timer.lua;fp=luadoc/timer.lua;h=0a8b42c3631ff9bd4df5206b64fb207573c185cd;hp=019b11138a735a27a54dd447e6d5e9c869f3dba2;hb=8701295e6c92b632b98fcf6d80857e228c61efd5;hpb=c368b848176d3201f4763101de0de544fa7be7b5" title="diff">D</a><a href="http://git.naquadah.org/?p=awesome.git;a=history;f=luadoc/timer.lua;h=8701295e6c92b632b98fcf6d80857e228c61efd5" title="history">H</a>] luadoc/timer.lua</li>\u000a<li>[<a href="http://git.naquadah.org/?p=awesome.git;a=blobdiff;f=luadoc/wibox.lua;fp=luadoc/wibox.lua;h=fa574aa9eacd34da055cd64e327d44bf81312d67;hp=a60b5fddb873c08a04db78ea14e84d1169d78337;hb=8701295e6c92b632b98fcf6d80857e228c61efd5;hpb=c368b848176d3201f4763101de0de544fa7be7b5" title="diff">D</a><a href="http://git.naquadah.org/?p=awesome.git;a=history;f=luadoc/wibox.lua;h=8701295e6c92b632b98fcf6d80857e228c61efd5" title="history">H</a>] luadoc/wibox.lua</li>\u000a<li>[<a href="http://git.naquadah.org/?p=awesome.git;a=blobdiff;f=luadoc/widget.lua;fp=luadoc/widget.lua;h=b945fc1aae2809ae98f1a55c569c6ee6812e3227;hp=3aea44ee8e2d26cdf24d22b837e1ed8eef65d8fb;hb=8701295e6c92b632b98fcf6d80857e228c61efd5;hpb=c368b848176d3201f4763101de0de544fa7be7b5" title="diff">D</a><a href="http://git.naquadah.org/?p=awesome.git;a=history;f=luadoc/widget.lua;h=8701295e6c92b632b98fcf6d80857e228c61efd5" title="history">H</a>] luadoc/widget.lua</li>\u000a</ul>\u000a</div>
p232
sg11
g12
((I2010
I9
I17
I15
I10
I53
I4
I260
I0
t(dtRp233
sg108
g12
((I2010
I9
I17
I15
I10
I53
I4
I260
I0
t(dtRp234
sg34
VTrack the number of objects
p235
sg32
VUli Schlachter (psychon@znc.in)
p236
sg14
(lp237
g1
(g2
g3
(dp238
S'href'
p239
Vhttp://git.naquadah.org/?p=awesome.git;a=commitdiff;h=8701295e6c92b632b98fcf6d80857e228c61efd5
p240
sS'type'
p241
Vtext/html
p242
sS'rel'
p243
Valternate
p244
stRp245
asg121
(lp246
g1
(g2
g3
(dp247
g45
Vhttp://git.naquadah.org/
p248
sg47
g125
sg49
g232
sg50
NstRp249
asS'title_detail'
p250
g1
(g2
g3
(dp251
g45
S'http://git.naquadah.org/?p=awesome.git;a=atom'
p252
sg47
g130
sg49
g235
sg50
NstRp253
sg57
g240
sg132
(lp254
g1
(g2
g3
(dp255
g40
VUli Schlachter
p256
sg136
Vpsychon@znc.in
p257
stRp258
asg139
V2010-09-17T15:10:53Z
p259
sg93
(lp260
Vgit.naquadah.org Git - awesome.git/atom log
p261
aV*
aS'read'
p262
asS'author_detail'
p263
g1
(g2
g3
(dp264
g40
VUli Schlachter
p265
sg136
Vpsychon@znc.in
p266
stRp267
sS'id'
p268
Vhttp://git.naquadah.org/?p=awesome.git;a=commitdiff;h=8701295e6c92b632b98fcf6d80857e228c61efd5
p269
stRp270
ag1
(g2
g3
(dp271
g7
V2010-09-17T14:08:06Z
p272
sg9
V<div>\u000a<pre>\u000awidget layouts: Check the number of geometries\u000a\u000aIf we called the widget layout for x widgets, but the layouts returned less\u000ageometries than this, we silently ignored the left-over widgets. If the layouts\u000areturned more geometries, we crashed.\u000a\u000aFix this by verifying that the number of widgets and the number of geometries\u000aare equal. If they are different, we use the smaller of the two.\u000a\u000aSigned-off-by: Uli Schlachter &lt;psychon@znc.in&gt;\u000a</pre><ul>\u000a<li>[<a href="http://git.naquadah.org/?p=awesome.git;a=blobdiff;f=objects/widget.c;fp=objects/widget.c;h=01b867082ffa5f698196c15b7d06f617ff162ddc;hp=f043f47d7673dbd3edd4470c383e8f035a767deb;hb=c368b848176d3201f4763101de0de544fa7be7b5;hpb=0a7bec1dbb5717debcced2ed6e9fef301071afaa" title="diff">D</a><a href="http://git.naquadah.org/?p=awesome.git;a=history;f=objects/widget.c;h=c368b848176d3201f4763101de0de544fa7be7b5" title="history">H</a>] objects/widget.c</li>\u000a</ul>\u000a</div>
p273
sg11
g12
((I2010
I9
I17
I14
I8
I6
I4
I260
I0
t(dtRp274
sg108
g12
((I2010
I9
I17
I14
I8
I6
I4
I260
I0
t(dtRp275
sg34
Vwidget layouts: Check the number of geometries
p276
sg32
VUli Schlachter (psychon@znc.in)
p277
sg14
(lp278
g1
(g2
g3
(dp279
S'href'
p280
Vhttp://git.naquadah.org/?p=awesome.git;a=commitdiff;h=c368b848176d3201f4763101de0de544fa7be7b5
p281
sS'type'
p282
Vtext/html
p283
sS'rel'
p284
Valternate
p285
stRp286
asg121
(lp287
g1
(g2
g3
(dp288
g45
Vhttp://git.naquadah.org/
p289
sg47
g125
sg49
g273
sg50
NstRp290
asS'title_detail'
p291
g1
(g2
g3
(dp292
g45
S'http://git.naquadah.org/?p=awesome.git;a=atom'
p293
sg47
g130
sg49
g276
sg50
NstRp294
sg57
g281
sg132
(lp295
g1
(g2
g3
(dp296
g40
VUli Schlachter
p297
sg136
Vpsychon@znc.in
p298
stRp299
asg139
V2010-09-17T14:08:06Z
p300
sg93
(lp301
g261
aV*
ag262
asS'author_detail'
p302
g1
(g2
g3
(dp303
g40
VUli Schlachter
p304
sg136
Vpsychon@znc.in
p305
stRp306
sS'id'
p307
Vhttp://git.naquadah.org/?p=awesome.git;a=commitdiff;h=c368b848176d3201f4763101de0de544fa7be7b5
p308
stRp309
ag1
(g2
g3
(dp310
g7
V2010-09-17T13:45:24Z
p311
sg9
V<div>\u000a<pre>\u000aCorrectly unref widget_nodes\u000a\u000aWhile drawing the wibox, the C core builds up a list of widgets and their\u000aassociated geometry. This list consists of widget_node_t objects and is\u000aconstructed like this (This is from luaA_table2widgets()):\u000a\u000a   widget_node_t w;\u000a   p_clear(&amp;w, 1);\u000a   w.widget = luaA_object_ref_item(L, idx, -1);\u000a   widget_node_array_append(widgets, w);\u000a\u000aAfter we are done with this list of widget nodes, it is freed via\u000awibox_widget_node_array_wipe(). However, wibox_widget_node_array_wipe() passed\u000a"&amp;w" to luaA_object_unref_item() while it should have used "w.widget" (which is\u000awhat was returned from luaA_object_ref_item()). This made the unref fail and the\u000awibox was carrying around a reference to this widget forever. This was\u000aeffectively a memory leak.\u000a\u000aSigned-off-by: Uli Schlachter &lt;psychon@znc.in&gt;\u000a</pre><ul>\u000a<li>[<a href="http://git.naquadah.org/?p=awesome.git;a=blobdiff;f=objects/wibox.c;fp=objects/wibox.c;h=066dbbffee10861f77a1cde38844c94a8de7c33e;hp=fb5ef9600948be00de18b9facb4cf24baa9b1d13;hb=0a7bec1dbb5717debcced2ed6e9fef301071afaa;hpb=71b15d292c22ba30d2ba49c51ee24f8933b2248e" title="diff">D</a><a href="http://git.naquadah.org/?p=awesome.git;a=history;f=objects/wibox.c;h=0a7bec1dbb5717debcced2ed6e9fef301071afaa" title="history">H</a>] objects/wibox.c</li>\u000a</ul>\u000a</div>
p312
sg11
g12
((I2010
I9
I17
I13
I45
I24
I4
I260
I0
t(dtRp313
sg108
g12
((I2010
I9
I17
I13
I45
I24
I4
I260
I0
t(dtRp314
sg34
VCorrectly unref widget_nodes
p315
sg32
VUli Schlachter (psychon@znc.in)
p316
sg14
(lp317
g1
(g2
g3
(dp318
S'href'
p319
Vhttp://git.naquadah.org/?p=awesome.git;a=commitdiff;h=0a7bec1dbb5717debcced2ed6e9fef301071afaa
p320
sS'type'
p321
Vtext/html
p322
sS'rel'
p323
Valternate
p324
stRp325
asg121
(lp326
g1
(g2
g3
(dp327
g45
Vhttp://git.naquadah.org/
p328
sg47
g125
sg49
g312
sg50
NstRp329
asS'title_detail'
p330
g1
(g2
g3
(dp331
g45
S'http://git.naquadah.org/?p=awesome.git;a=atom'
p332
sg47
g130
sg49
g315
sg50
NstRp333
sg57
g320
sg132
(lp334
g1
(g2
g3
(dp335
g40
VUli Schlachter
p336
sg136
Vpsychon@znc.in
p337
stRp338
asg139
V2010-09-17T13:45:24Z
p339
sg93
(lp340
g261
aV*
ag262
asS'author_detail'
p341
g1
(g2
g3
(dp342
g40
VUli Schlachter
p343
sg136
Vpsychon@znc.in
p344
stRp345
sS'id'
p346
Vhttp://git.naquadah.org/?p=awesome.git;a=commitdiff;h=0a7bec1dbb5717debcced2ed6e9fef301071afaa
p347
stRp348
ag1
(g2
g3
(dp349
g7
V2010-09-16T17:02:15Z
p350
sg9
V<div>\u000a<pre>\u000aFix a "table expected instead of nil" error\u000a\u000aIt seems like with lots of bad luck, the garbage collector manages to "steal"\u000athe table with the buttons right after we decided to use it. Evil collector!\u000a\u000aSigned-off-by: Uli Schlachter &lt;psychon@znc.in&gt;\u000a</pre><ul>\u000a<li>[<a href="http://git.naquadah.org/?p=awesome.git;a=blobdiff;f=lib/awful/widget/common.lua.in;fp=lib/awful/widget/common.lua.in;h=9373b7acd89d4a0031259821b90be2959487e538;hp=71be953d5f95be7b427c5435bbcfd8a4fbcffebd;hb=71b15d292c22ba30d2ba49c51ee24f8933b2248e;hpb=abf329d7d8ac364a5dc7fec58454f8ddb8d16389" title="diff">D</a><a href="http://git.naquadah.org/?p=awesome.git;a=history;f=lib/awful/widget/common.lua.in;h=71b15d292c22ba30d2ba49c51ee24f8933b2248e" title="history">H</a>] lib/awful/widget/common.lua.in</li>\u000a</ul>\u000a</div>
p351
sg11
g12
((I2010
I9
I16
I17
I2
I15
I3
I259
I0
t(dtRp352
sg108
g12
((I2010
I9
I16
I17
I2
I15
I3
I259
I0
t(dtRp353
sg34
VFix a "table expected instead of nil" error
p354
sg32
VUli Schlachter (psychon@znc.in)
p355
sg14
(lp356
g1
(g2
g3
(dp357
S'href'
p358
Vhttp://git.naquadah.org/?p=awesome.git;a=commitdiff;h=71b15d292c22ba30d2ba49c51ee24f8933b2248e
p359
sS'type'
p360
Vtext/html
p361
sS'rel'
p362
Valternate
p363
stRp364
asg121
(lp365
g1
(g2
g3
(dp366
g45
Vhttp://git.naquadah.org/
p367
sg47
g125
sg49
g351
sg50
NstRp368
asS'title_detail'
p369
g1
(g2
g3
(dp370
g45
S'http://git.naquadah.org/?p=awesome.git;a=atom'
p371
sg47
g130
sg49
g354
sg50
NstRp372
sg57
g359
sg132
(lp373
g1
(g2
g3
(dp374
g40
VUli Schlachter
p375
sg136
Vpsychon@znc.in
p376
stRp377
asg139
V2010-09-16T17:02:15Z
p378
sg93
(lp379
Vgit.naquadah.org Git - awesome.git/atom log
p380
aV*
aS'read'
p381
asS'author_detail'
p382
g1
(g2
g3
(dp383
g40
VUli Schlachter
p384
sg136
Vpsychon@znc.in
p385
stRp386
sS'id'
p387
Vhttp://git.naquadah.org/?p=awesome.git;a=commitdiff;h=71b15d292c22ba30d2ba49c51ee24f8933b2248e
p388
stRp389
ag1
(g2
g3
(dp390
g7
V2010-09-16T16:27:04Z
p391
sg9
V<div>\u000a<pre>\u000aWibox: Unref old widgets table\u000a\u000aWhen setting a new widgets table, the wibox obviously should drop its reference\u000aon the old widgets table.\u000a\u000aSigned-off-by: Uli Schlachter &lt;psychon@znc.in&gt;\u000a</pre><ul>\u000a<li>[<a href="http://git.naquadah.org/?p=awesome.git;a=blobdiff;f=objects/wibox.c;fp=objects/wibox.c;h=fb5ef9600948be00de18b9facb4cf24baa9b1d13;hp=a36b92c62b4bc0b9fe618528498979faf4bf2924;hb=abf329d7d8ac364a5dc7fec58454f8ddb8d16389;hpb=89f05c90ca73b3a67071d45c25e800d36367f82d" title="diff">D</a><a href="http://git.naquadah.org/?p=awesome.git;a=history;f=objects/wibox.c;h=abf329d7d8ac364a5dc7fec58454f8ddb8d16389" title="history">H</a>] objects/wibox.c</li>\u000a</ul>\u000a</div>
p392
sg11
g12
((I2010
I9
I16
I16
I27
I4
I3
I259
I0
t(dtRp393
sg108
g12
((I2010
I9
I16
I16
I27
I4
I3
I259
I0
t(dtRp394
sg34
VWibox: Unref old widgets table
p395
sg32
VUli Schlachter (psychon@znc.in)
p396
sg14
(lp397
g1
(g2
g3
(dp398
S'href'
p399
Vhttp://git.naquadah.org/?p=awesome.git;a=commitdiff;h=abf329d7d8ac364a5dc7fec58454f8ddb8d16389
p400
sS'type'
p401
Vtext/html
p402
sS'rel'
p403
Valternate
p404
stRp405
asg121
(lp406
g1
(g2
g3
(dp407
g45
Vhttp://git.naquadah.org/
p408
sg47
g125
sg49
g392
sg50
NstRp409
asS'title_detail'
p410
g1
(g2
g3
(dp411
g45
S'http://git.naquadah.org/?p=awesome.git;a=atom'
p412
sg47
g130
sg49
g395
sg50
NstRp413
sg57
g400
sg132
(lp414
g1
(g2
g3
(dp415
g40
VUli Schlachter
p416
sg136
Vpsychon@znc.in
p417
stRp418
asg139
V2010-09-16T16:27:04Z
p419
sg93
(lp420
g380
aV*
ag381
asS'author_detail'
p421
g1
(g2
g3
(dp422
g40
VUli Schlachter
p423
sg136
Vpsychon@znc.in
p424
stRp425
sS'id'
p426
Vhttp://git.naquadah.org/?p=awesome.git;a=commitdiff;h=abf329d7d8ac364a5dc7fec58454f8ddb8d16389
p427
stRp428
ag1
(g2
g3
(dp429
g7
V2010-09-16T15:28:50Z
p430
sg9
V<div>\u000a<pre>\u000a{tag,task}list: Use a weak-valued table\u000a\u000aThe data table is used to map objects (clients/tags) to the buttons associated\u000awith them. This is done so that we don't have to re-create the button objects\u000aeach time this lists are updated.\u000a\u000aThe problem was that this weak-keyed table was never cleared, because the value\u000ahad a strong reference to the key (via the button's signal):\u000a\u000abtn:connect_signal("press", function () b:emit_signal("press", o) end)\u000a\u000a"o" is the key in the table and btn is reachable from the value. This prevented\u000athe garbage collection of the key. Using a weak-keyed and weak-valued table\u000afixes this.\u000a\u000aSigned-off-by: Uli Schlachter &lt;psychon@znc.in&gt;\u000a</pre><ul>\u000a<li>[<a href="http://git.naquadah.org/?p=awesome.git;a=blobdiff;f=lib/awful/widget/taglist.lua.in;fp=lib/awful/widget/taglist.lua.in;h=5731d1cb18f87f4bde2b8ab0ad4fde89cdc09d57;hp=ff8767a33128273469f2321225ad5da22dc22079;hb=89f05c90ca73b3a67071d45c25e800d36367f82d;hpb=3aee846869a50dc423a8f1a8cef8936368dd1dcd" title="diff">D</a><a href="http://git.naquadah.org/?p=awesome.git;a=history;f=lib/awful/widget/taglist.lua.in;h=89f05c90ca73b3a67071d45c25e800d36367f82d" title="history">H</a>] lib/awful/widget/taglist.lua.in</li>\u000a<li>[<a href="http://git.naquadah.org/?p=awesome.git;a=blobdiff;f=lib/awful/widget/tasklist.lua.in;fp=lib/awful/widget/tasklist.lua.in;h=1dde72eed42fcd147ba7c0cf2d0c29ac5ab0c0e3;hp=88e9fa1f16126a1b2ecc57b0f140422ebcce56fc;hb=89f05c90ca73b3a67071d45c25e800d36367f82d;hpb=3aee846869a50dc423a8f1a8cef8936368dd1dcd" title="diff">D</a><a href="http://git.naquadah.org/?p=awesome.git;a=history;f=lib/awful/widget/tasklist.lua.in;h=89f05c90ca73b3a67071d45c25e800d36367f82d" title="history">H</a>] lib/awful/widget/tasklist.lua.in</li>\u000a</ul>\u000a</div>
p431
sg11
g12
((I2010
I9
I16
I15
I28
I50
I3
I259
I0
t(dtRp432
sg108
g12
((I2010
I9
I16
I15
I28
I50
I3
I259
I0
t(dtRp433
sg34
V{tag,task}list: Use a weak-valued table
p434
sg32
VUli Schlachter (psychon@znc.in)
p435
sg14
(lp436
g1
(g2
g3
(dp437
S'href'
p438
Vhttp://git.naquadah.org/?p=awesome.git;a=commitdiff;h=89f05c90ca73b3a67071d45c25e800d36367f82d
p439
sS'type'
p440
Vtext/html
p441
sS'rel'
p442
Valternate
p443
stRp444
asg121
(lp445
g1
(g2
g3
(dp446
g45
Vhttp://git.naquadah.org/
p447
sg47
g125
sg49
g431
sg50
NstRp448
asS'title_detail'
p449
g1
(g2
g3
(dp450
g45
S'http://git.naquadah.org/?p=awesome.git;a=atom'
p451
sg47
g130
sg49
g434
sg50
NstRp452
sg57
g439
sg132
(lp453
g1
(g2
g3
(dp454
g40
VUli Schlachter
p455
sg136
Vpsychon@znc.in
p456
stRp457
asg139
V2010-09-16T15:28:50Z
p458
sg93
(lp459
g380
aV*
ag381
asS'author_detail'
p460
g1
(g2
g3
(dp461
g40
VUli Schlachter
p462
sg136
Vpsychon@znc.in
p463
stRp464
sS'id'
p465
Vhttp://git.naquadah.org/?p=awesome.git;a=commitdiff;h=89f05c90ca73b3a67071d45c25e800d36367f82d
p466
stRp467
ag1
(g2
g3
(dp468
g7
V2010-09-15T19:30:45Z
p469
sg9
V<div>\u000a<pre>\u000aError handling: Use libxcb's defines\u000a\u000aSince libxcb-event is deprecated, we should stop using its defines.\u000a\u000aSigned-off-by: Uli Schlachter &lt;psychon@znc.in&gt;\u000a</pre><ul>\u000a<li>[<a href="http://git.naquadah.org/?p=awesome.git;a=blobdiff;f=event.c;fp=event.c;h=7ad40e425ddb84e0f0f70120ed163e8918546cd2;hp=f1393341c51f4ea06d5db2b7e7b39325359da894;hb=3aee846869a50dc423a8f1a8cef8936368dd1dcd;hpb=b0f125a664f85020c0293147976915e32f3eabd6" title="diff">D</a><a href="http://git.naquadah.org/?p=awesome.git;a=history;f=event.c;h=3aee846869a50dc423a8f1a8cef8936368dd1dcd" title="history">H</a>] event.c</li>\u000a</ul>\u000a</div>
p470
sg11
g12
((I2010
I9
I15
I19
I30
I45
I2
I258
I0
t(dtRp471
sg108
g12
((I2010
I9
I15
I19
I30
I45
I2
I258
I0
t(dtRp472
sg34
VError handling: Use libxcb's defines
p473
sg32
VUli Schlachter (psychon@znc.in)
p474
sg14
(lp475
g1
(g2
g3
(dp476
S'href'
p477
Vhttp://git.naquadah.org/?p=awesome.git;a=commitdiff;h=3aee846869a50dc423a8f1a8cef8936368dd1dcd
p478
sS'type'
p479
Vtext/html
p480
sS'rel'
p481
Valternate
p482
stRp483
asg121
(lp484
g1
(g2
g3
(dp485
g45
Vhttp://git.naquadah.org/
p486
sg47
g125
sg49
g470
sg50
NstRp487
asS'title_detail'
p488
g1
(g2
g3
(dp489
g45
S'http://git.naquadah.org/?p=awesome.git;a=atom'
p490
sg47
g130
sg49
g473
sg50
NstRp491
sg57
g478
sg132
(lp492
g1
(g2
g3
(dp493
g40
VUli Schlachter
p494
sg136
Vpsychon@znc.in
p495
stRp496
asg139
V2010-09-15T19:30:45Z
p497
sg93
(lp498
Vgit.naquadah.org Git - awesome.git/atom log
p499
aV*
aS'read'
p500
asS'author_detail'
p501
g1
(g2
g3
(dp502
g40
VUli Schlachter
p503
sg136
Vpsychon@znc.in
p504
stRp505
sS'id'
p506
Vhttp://git.naquadah.org/?p=awesome.git;a=commitdiff;h=3aee846869a50dc423a8f1a8cef8936368dd1dcd
p507
stRp508
ag1
(g2
g3
(dp509
g7
V2010-09-15T19:25:54Z
p510
sg9
V<div>\u000a<pre>\u000aewmh: Use the libxcb define\u000a\u000aWINDOW is a deprecated define which will be removed. We should be using\u000aXCB_ATOM_WINDOW instead.\u000a\u000aThis is a follow-up to 5d0a81c8bf4881d4.\u000a\u000aSigned-off-by: Uli Schlachter &lt;psychon@znc.in&gt;\u000a</pre><ul>\u000a<li>[<a href="http://git.naquadah.org/?p=awesome.git;a=blobdiff;f=ewmh.c;fp=ewmh.c;h=ab9b78c219b0be7082ce51fb3a5a9e3db6150729;hp=b258e7eeebd75d429a6a463c57a5646c798be7f0;hb=b0f125a664f85020c0293147976915e32f3eabd6;hpb=9b89798d2bf9de6b941f91edef30e2bbb5ad80a0" title="diff">D</a><a href="http://git.naquadah.org/?p=awesome.git;a=history;f=ewmh.c;h=b0f125a664f85020c0293147976915e32f3eabd6" title="history">H</a>] ewmh.c</li>\u000a</ul>\u000a</div>
p511
sg11
g12
((I2010
I9
I15
I19
I25
I54
I2
I258
I0
t(dtRp512
sg108
g12
((I2010
I9
I15
I19
I25
I54
I2
I258
I0
t(dtRp513
sg34
Vewmh: Use the libxcb define
p514
sg32
VUli Schlachter (psychon@znc.in)
p515
sg14
(lp516
g1
(g2
g3
(dp517
S'href'
p518
Vhttp://git.naquadah.org/?p=awesome.git;a=commitdiff;h=b0f125a664f85020c0293147976915e32f3eabd6
p519
sS'type'
p520
Vtext/html
p521
sS'rel'
p522
Valternate
p523
stRp524
asg121
(lp525
g1
(g2
g3
(dp526
g45
Vhttp://git.naquadah.org/
p527
sg47
g125
sg49
g511
sg50
NstRp528
asS'title_detail'
p529
g1
(g2
g3
(dp530
g45
S'http://git.naquadah.org/?p=awesome.git;a=atom'
p531
sg47
g130
sg49
g514
sg50
NstRp532
sg57
g519
sg132
(lp533
g1
(g2
g3
(dp534
g40
VUli Schlachter
p535
sg136
Vpsychon@znc.in
p536
stRp537
asg139
V2010-09-15T19:25:54Z
p538
sg93
(lp539
g499
aV*
ag500
asS'author_detail'
p540
g1
(g2
g3
(dp541
g40
VUli Schlachter
p542
sg136
Vpsychon@znc.in
p543
stRp544
sS'id'
p545
Vhttp://git.naquadah.org/?p=awesome.git;a=commitdiff;h=b0f125a664f85020c0293147976915e32f3eabd6
p546
stRp547
ag1
(g2
g3
(dp548
g7
V2010-09-14T20:14:38Z
p549
sg9
V<div>\u000a<pre>\u000aPartly revert 9a34c4567b81d9671e79acf9cbb710eb5e919bce\u000a\u000aTurns out there are files in themes/ which are still needed (e.g. the default\u000awallpaper and the layout icons).\u000a\u000aSigned-off-by: Uli Schlachter &lt;psychon@znc.in&gt;\u000a</pre><ul>\u000a<li>[<a href="http://git.naquadah.org/?p=awesome.git;a=blobdiff;f=CMakeLists.txt;fp=CMakeLists.txt;h=375077c2fee831d96e4707d00bf75579e8653963;hp=314428ceb4b48fce0fb988fbbee495ca59b39cb6;hb=9b89798d2bf9de6b941f91edef30e2bbb5ad80a0;hpb=2c1d09ebc26550cb30ca8dfcc0be491667333d93" title="diff">D</a><a href="http://git.naquadah.org/?p=awesome.git;a=history;f=CMakeLists.txt;h=9b89798d2bf9de6b941f91edef30e2bbb5ad80a0" title="history">H</a>] CMakeLists.txt</li>\u000a</ul>\u000a</div>
p550
sg11
g12
((I2010
I9
I14
I20
I14
I38
I1
I257
I0
t(dtRp551
sg108
g12
((I2010
I9
I14
I20
I14
I38
I1
I257
I0
t(dtRp552
sg34
VPartly revert 9a34c4567b81d9671e79acf9cbb710eb5e919bce
p553
sg32
VUli Schlachter (psychon@znc.in)
p554
sg14
(lp555
g1
(g2
g3
(dp556
S'href'
p557
Vhttp://git.naquadah.org/?p=awesome.git;a=commitdiff;h=9b89798d2bf9de6b941f91edef30e2bbb5ad80a0
p558
sS'type'
p559
Vtext/html
p560
sS'rel'
p561
Valternate
p562
stRp563
asg121
(lp564
g1
(g2
g3
(dp565
g45
Vhttp://git.naquadah.org/
p566
sg47
g125
sg49
g550
sg50
NstRp567
asS'title_detail'
p568
g1
(g2
g3
(dp569
g45
S'http://git.naquadah.org/?p=awesome.git;a=atom'
p570
sg47
g130
sg49
g553
sg50
NstRp571
sg57
g558
sg132
(lp572
g1
(g2
g3
(dp573
g40
VUli Schlachter
p574
sg136
Vpsychon@znc.in
p575
stRp576
asg139
V2010-09-14T20:14:38Z
p577
sg93
(lp578
Vgit.naquadah.org Git - awesome.git/atom log
p579
aV*
aS'read'
p580
asS'author_detail'
p581
g1
(g2
g3
(dp582
g40
VUli Schlachter
p583
sg136
Vpsychon@znc.in
p584
stRp585
sS'id'
p586
Vhttp://git.naquadah.org/?p=awesome.git;a=commitdiff;h=9b89798d2bf9de6b941f91edef30e2bbb5ad80a0
p587
stRp588
ag1
(g2
g3
(dp589
g7
V2010-09-13T20:48:16Z
p590
sg9
V<div>\u000a<pre>\u000aAdd match_any function and rule_any definition for different client matching.\u000a\u000aSigned-off-by: Ignas Anikevicius (gns_ank) &lt;anikevicius@gmail.com&gt;\u000aSigned-off-by: Uli Schlachter &lt;psychon@znc.in&gt;\u000a</pre><ul>\u000a<li>[<a href="http://git.naquadah.org/?p=awesome.git;a=blobdiff;f=lib/awful/rules.lua.in;fp=lib/awful/rules.lua.in;h=1b1c390a82d56774c032c131c5939647aa3542a8;hp=76f8c96ccec5403280345ab7d5eaf8cf503c74a6;hb=2c1d09ebc26550cb30ca8dfcc0be491667333d93;hpb=9a34c4567b81d9671e79acf9cbb710eb5e919bce" title="diff">D</a><a href="http://git.naquadah.org/?p=awesome.git;a=history;f=lib/awful/rules.lua.in;h=2c1d09ebc26550cb30ca8dfcc0be491667333d93" title="history">H</a>] lib/awful/rules.lua.in</li>\u000a</ul>\u000a</div>
p591
sg11
g12
((I2010
I9
I13
I20
I48
I16
I0
I256
I0
t(dtRp592
sg108
g12
((I2010
I9
I13
I20
I48
I16
I0
I256
I0
t(dtRp593
sg34
VAdd match_any function and rule_any definition for different client matching.
p594
sg32
VIgnas Anikevicius (gns_ank) (anikevicius@gmail.com)
p595
sg14
(lp596
g1
(g2
g3
(dp597
S'href'
p598
Vhttp://git.naquadah.org/?p=awesome.git;a=commitdiff;h=2c1d09ebc26550cb30ca8dfcc0be491667333d93
p599
sS'type'
p600
Vtext/html
p601
sS'rel'
p602
Valternate
p603
stRp604
asg121
(lp605
g1
(g2
g3
(dp606
g45
Vhttp://git.naquadah.org/
p607
sg47
g125
sg49
g591
sg50
NstRp608
asS'title_detail'
p609
g1
(g2
g3
(dp610
g45
S'http://git.naquadah.org/?p=awesome.git;a=atom'
p611
sg47
g130
sg49
g594
sg50
NstRp612
sg57
g599
sg132
(lp613
g1
(g2
g3
(dp614
g40
VUli Schlachter
p615
sg136
Vpsychon@znc.in
p616
stRp617
asg139
V2010-09-13T20:48:16Z
p618
sg93
(lp619
Vgit.naquadah.org Git - awesome.git/atom log
p620
aV*
aS'read'
p621
asS'author_detail'
p622
g1
(g2
g3
(dp623
g40
VIgnas Anikevicius (gns_ank)
p624
sg136
Vanikevicius@gmail.com
p625
stRp626
sS'id'
p627
Vhttp://git.naquadah.org/?p=awesome.git;a=commitdiff;h=2c1d09ebc26550cb30ca8dfcc0be491667333d93
p628
stRp629
ag1
(g2
g3
(dp630
g7
V2010-09-13T14:36:26Z
p631
sg9
V<div>\u000a<pre>\u000aUse relative paths for the titlebar icons (FS#809)\u000a\u000aThe current code used "if(MATCHES)" to decide if a path was inside the source\u000adirectory or the build directory. MATCHES uses regular expressions and so this\u000acheck failed miserably if the path contained any characters that have a special\u000ameaning in regular expressions (e.g. "+").\u000a\u000aFix this by only using paths inside the build dir for the icons. All icons are\u000acopied from the source dir to the build dir so that we can freely assume that\u000aeverything is inside the build directory.\u000a\u000aInstead of trying to "transform" the existing paths from the source dir to the\u000abuild dir, we use "file(GLOB)"'s RELATIVE option that gives us relative path.\u000aTogether with the way "file(COPY)" interprets its arguments, that's all we need.\u000a\u000aSigned-off-by: Uli Schlachter &lt;psychon@znc.in&gt;\u000a</pre><ul>\u000a<li>[<a href="http://git.naquadah.org/?p=awesome.git;a=blobdiff;f=CMakeLists.txt;fp=CMakeLists.txt;h=314428ceb4b48fce0fb988fbbee495ca59b39cb6;hp=73faece457ce510ba7af7e7f03f0401111fcf7c3;hb=9a34c4567b81d9671e79acf9cbb710eb5e919bce;hpb=53565f6bc387a7b5c126bf2cdab523cab6ce7fe2" title="diff">D</a><a href="http://git.naquadah.org/?p=awesome.git;a=history;f=CMakeLists.txt;h=9a34c4567b81d9671e79acf9cbb710eb5e919bce" title="history">H</a>] CMakeLists.txt</li>\u000a</ul>\u000a</div>
p632
sg11
g12
((I2010
I9
I13
I14
I36
I26
I0
I256
I0
t(dtRp633
sg108
g12
((I2010
I9
I13
I14
I36
I26
I0
I256
I0
t(dtRp634
sg34
VUse relative paths for the titlebar icons (FS#809)
p635
sg32
VUli Schlachter (psychon@znc.in)
p636
sg14
(lp637
g1
(g2
g3
(dp638
S'href'
p639
Vhttp://git.naquadah.org/?p=awesome.git;a=commitdiff;h=9a34c4567b81d9671e79acf9cbb710eb5e919bce
p640
sS'type'
p641
Vtext/html
p642
sS'rel'
p643
Valternate
p644
stRp645
asg121
(lp646
g1
(g2
g3
(dp647
g45
Vhttp://git.naquadah.org/
p648
sg47
g125
sg49
g632
sg50
NstRp649
asS'title_detail'
p650
g1
(g2
g3
(dp651
g45
S'http://git.naquadah.org/?p=awesome.git;a=atom'
p652
sg47
g130
sg49
g635
sg50
NstRp653
sg57
g640
sg132
(lp654
g1
(g2
g3
(dp655
g40
VUli Schlachter
p656
sg136
Vpsychon@znc.in
p657
stRp658
asg139
V2010-09-13T14:36:26Z
p659
sg93
(lp660
Vgit.naquadah.org Git - awesome.git/atom log
p661
aV*
aS'read'
p662
asS'author_detail'
p663
g1
(g2
g3
(dp664
g40
VUli Schlachter
p665
sg136
Vpsychon@znc.in
p666
stRp667
sS'id'
p668
Vhttp://git.naquadah.org/?p=awesome.git;a=commitdiff;h=9a34c4567b81d9671e79acf9cbb710eb5e919bce
p669
stRp670
ag1
(g2
g3
(dp671
g7
V2010-09-10T10:28:31Z
p672
sg9
V<div>\u000a<pre>\u000aRemove tokenize.gperf\u000a\u000aThis file isn't used since 6bb646861c23aa5bc791a2a91f8e6c51ff6eaeb4, but\u000aapparently I forgot to actually remove it. Whoops.\u000a\u000aSigned-off-by: Uli Schlachter &lt;psychon@znc.in&gt;\u000a</pre><ul>\u000a<li>[<a href="http://git.naquadah.org/?p=awesome.git;a=blobdiff;f=common/tokenize.gperf;fp=common/tokenize.gperf;h=0000000000000000000000000000000000000000;hp=0ba2fd91af21235a965b104213261fa5fb416559;hb=53565f6bc387a7b5c126bf2cdab523cab6ce7fe2;hpb=6ff0263072f74c9881c46842ecb540ae71a3db5d" title="diff">D</a><a href="http://git.naquadah.org/?p=awesome.git;a=history;f=common/tokenize.gperf;h=53565f6bc387a7b5c126bf2cdab523cab6ce7fe2" title="history">H</a>] common/tokenize.gperf</li>\u000a</ul>\u000a</div>
p673
sg11
g12
((I2010
I9
I10
I10
I28
I31
I4
I253
I0
t(dtRp674
sg108
g12
((I2010
I9
I10
I10
I28
I31
I4
I253
I0
t(dtRp675
sg34
VRemove tokenize.gperf
p676
sg32
VUli Schlachter (psychon@znc.in)
p677
sg14
(lp678
g1
(g2
g3
(dp679
S'href'
p680
Vhttp://git.naquadah.org/?p=awesome.git;a=commitdiff;h=53565f6bc387a7b5c126bf2cdab523cab6ce7fe2
p681
sS'type'
p682
Vtext/html
p683
sS'rel'
p684
Valternate
p685
stRp686
asg121
(lp687
g1
(g2
g3
(dp688
g45
Vhttp://git.naquadah.org/
p689
sg47
g125
sg49
g673
sg50
NstRp690
asS'title_detail'
p691
g1
(g2
g3
(dp692
g45
S'http://git.naquadah.org/?p=awesome.git;a=atom'
p693
sg47
g130
sg49
g676
sg50
NstRp694
sg57
g681
sg132
(lp695
g1
(g2
g3
(dp696
g40
VUli Schlachter
p697
sg136
Vpsychon@znc.in
p698
stRp699
asg139
V2010-09-10T10:28:31Z
p700
sg93
(lp701
g661
aV*
ag662
asS'author_detail'
p702
g1
(g2
g3
(dp703
g40
VUli Schlachter
p704
sg136
Vpsychon@znc.in
p705
stRp706
sS'id'
p707
Vhttp://git.naquadah.org/?p=awesome.git;a=commitdiff;h=53565f6bc387a7b5c126bf2cdab523cab6ce7fe2
p708
stRp709
ag1
(g2
g3
(dp710
g7
V2010-09-10T09:31:02Z
p711
sg9
V<div>\u000a<pre>\u000aStop trying to use named colors\u000a\u000aSigned-off-by: Uli Schlachter &lt;psychon@znc.in&gt;\u000a</pre><ul>\u000a<li>[<a href="http://git.naquadah.org/?p=awesome.git;a=blobdiff;f=awesome.c;fp=awesome.c;h=d05af4aeef7d32385644a6f326b231698d1fec8e;hp=ab4c8d58ac8cac41fc845c0bf897bfdf80cc19e9;hb=6ff0263072f74c9881c46842ecb540ae71a3db5d;hpb=cf679c2db3cd1dd48a0c446cad45ad38824b9beb" title="diff">D</a><a href="http://git.naquadah.org/?p=awesome.git;a=history;f=awesome.c;h=6ff0263072f74c9881c46842ecb540ae71a3db5d" title="history">H</a>] awesome.c</li>\u000a</ul>\u000a</div>
p712
sg11
g12
((I2010
I9
I10
I9
I31
I2
I4
I253
I0
t(dtRp713
sg108
g12
((I2010
I9
I10
I9
I31
I2
I4
I253
I0
t(dtRp714
sg34
VStop trying to use named colors
p715
sg32
VUli Schlachter (psychon@znc.in)
p716
sg14
(lp717
g1
(g2
g3
(dp718
S'href'
p719
Vhttp://git.naquadah.org/?p=awesome.git;a=commitdiff;h=6ff0263072f74c9881c46842ecb540ae71a3db5d
p720
sS'type'
p721
Vtext/html
p722
sS'rel'
p723
Valternate
p724
stRp725
asg121
(lp726
g1
(g2
g3
(dp727
g45
Vhttp://git.naquadah.org/
p728
sg47
g125
sg49
g712
sg50
NstRp729
asS'title_detail'
p730
g1
(g2
g3
(dp731
g45
S'http://git.naquadah.org/?p=awesome.git;a=atom'
p732
sg47
g130
sg49
g715
sg50
NstRp733
sg57
g720
sg132
(lp734
g1
(g2
g3
(dp735
g40
VUli Schlachter
p736
sg136
Vpsychon@znc.in
p737
stRp738
asg139
V2010-09-10T09:31:02Z
p739
sg93
(lp740
g661
aV*
ag662
asS'author_detail'
p741
g1
(g2
g3
(dp742
g40
VUli Schlachter
p743
sg136
Vpsychon@znc.in
p744
stRp745
sS'id'
p746
Vhttp://git.naquadah.org/?p=awesome.git;a=commitdiff;h=6ff0263072f74c9881c46842ecb540ae71a3db5d
p747
stRp748
ag1
(g2
g3
(dp749
g7
V2010-09-10T09:27:40Z
p750
sg9
V<div>\u000a<pre>\u000aRemove named colors\u000a\u000aThe only string format for colors that we now support are #rrggbb and #rrggbbaa.\u000aAll other strings will cause errors.\u000a\u000aThanks to this, color_init_cookie_t can be removed. There won't be a request to\u000athe X server for transforming named colors any more and so there won't be a\u000acookie. This means that color_init_reply() has to be removed, too.\u000a\u000aSigned-off-by: Uli Schlachter &lt;psychon@znc.in&gt;\u000a</pre><ul>\u000a<li>[<a href="http://git.naquadah.org/?p=awesome.git;a=blobdiff;f=color.c;fp=color.c;h=9487b5515ce85a48091b5a294c39d3dccf1273aa;hp=a8a9b21b8787c19201fd4553e4eddd1f5d666e9b;hb=cf679c2db3cd1dd48a0c446cad45ad38824b9beb;hpb=97f66c57b57b2f3eb5bef654266e67a5ae235759" title="diff">D</a><a href="http://git.naquadah.org/?p=awesome.git;a=history;f=color.c;h=cf679c2db3cd1dd48a0c446cad45ad38824b9beb" title="history">H</a>] color.c</li>\u000a<li>[<a href="http://git.naquadah.org/?p=awesome.git;a=blobdiff;f=color.h;fp=color.h;h=9c4611b47c170bbf0c79b266057ff31637da5c83;hp=5f60ea4ddf989bf5d71af99b244fe53c3604704b;hb=cf679c2db3cd1dd48a0c446cad45ad38824b9beb;hpb=97f66c57b57b2f3eb5bef654266e67a5ae235759" title="diff">D</a><a href="http://git.naquadah.org/?p=awesome.git;a=history;f=color.h;h=cf679c2db3cd1dd48a0c446cad45ad38824b9beb" title="history">H</a>] color.h</li>\u000a<li>[<a href="http://git.naquadah.org/?p=awesome.git;a=blobdiff;f=objects/image.c;fp=objects/image.c;h=9eb9aca17cf4fd5fed172f1307b748b2c9396bb1;hp=3f36c014cc5603f9aa5325e6a6ba95bad856de86;hb=cf679c2db3cd1dd48a0c446cad45ad38824b9beb;hpb=97f66c57b57b2f3eb5bef654266e67a5ae235759" title="diff">D</a><a href="http://git.naquadah.org/?p=awesome.git;a=history;f=objects/image.c;h=cf679c2db3cd1dd48a0c446cad45ad38824b9beb" title="history">H</a>] objects/image.c</li>\u000a<li>[<a href="http://git.naquadah.org/?p=awesome.git;a=blobdiff;f=objects/widgets/imagebox.c;fp=objects/widgets/imagebox.c;h=d466792fa34ba725419e69fe2e8e4eec4b6d2b3d;hp=2cc34ecaad56eb3224105f02bf6430f0ae4453d0;hb=cf679c2db3cd1dd48a0c446cad45ad38824b9beb;hpb=97f66c57b57b2f3eb5bef654266e67a5ae235759" title="diff">D</a><a href="http://git.naquadah.org/?p=awesome.git;a=history;f=objects/widgets/imagebox.c;h=cf679c2db3cd1dd48a0c446cad45ad38824b9beb" title="history">H</a>] objects/widgets/imagebox.c</li>\u000a<li>[<a href="http://git.naquadah.org/?p=awesome.git;a=blobdiff;f=objects/widgets/textbox.c;fp=objects/widgets/textbox.c;h=5af37c96dc15e2bba6dd2893c96ea024ceb84de7;hp=0d0bc77e3945cd98e2627add26a92f2f8c61e436;hb=cf679c2db3cd1dd48a0c446cad45ad38824b9beb;hpb=97f66c57b57b2f3eb5bef654266e67a5ae235759" title="diff">D</a><a href="http://git.naquadah.org/?p=awesome.git;a=history;f=objects/widgets/textbox.c;h=cf679c2db3cd1dd48a0c446cad45ad38824b9beb" title="history">H</a>] objects/widgets/textbox.c</li>\u000a</ul>\u000a</div>
p751
sg11
g12
((I2010
I9
I10
I9
I27
I40
I4
I253
I0
t(dtRp752
sg108
g12
((I2010
I9
I10
I9
I27
I40
I4
I253
I0
t(dtRp753
sg34
VRemove named colors
p754
sg32
VUli Schlachter (psychon@znc.in)
p755
sg14
(lp756
g1
(g2
g3
(dp757
S'href'
p758
Vhttp://git.naquadah.org/?p=awesome.git;a=commitdiff;h=cf679c2db3cd1dd48a0c446cad45ad38824b9beb
p759
sS'type'
p760
Vtext/html
p761
sS'rel'
p762
Valternate
p763
stRp764
asg121
(lp765
g1
(g2
g3
(dp766
g45
Vhttp://git.naquadah.org/
p767
sg47
g125
sg49
g751
sg50
NstRp768
asS'title_detail'
p769
g1
(g2
g3
(dp770
g45
S'http://git.naquadah.org/?p=awesome.git;a=atom'
p771
sg47
g130
sg49
g754
sg50
NstRp772
sg57
g759
sg132
(lp773
g1
(g2
g3
(dp774
g40
VUli Schlachter
p775
sg136
Vpsychon@znc.in
p776
stRp777
asg139
V2010-09-10T09:27:40Z
p778
sg93
(lp779
g661
aV*
ag662
asS'author_detail'
p780
g1
(g2
g3
(dp781
g40
VUli Schlachter
p782
sg136
Vpsychon@znc.in
p783
stRp784
sS'id'
p785
Vhttp://git.naquadah.org/?p=awesome.git;a=commitdiff;h=cf679c2db3cd1dd48a0c446cad45ad38824b9beb
p786
stRp787
ag1
(g2
g3
(dp788
g7
V2010-08-20T09:56:23Z
p789
sg9
V<div>\u000a<pre>\u000aAdd drawing functions that will be needed later on\u000a\u000aSigned-off-by: Uli Schlachter &lt;psychon@znc.in&gt;\u000a</pre><ul>\u000a<li>[<a href="http://git.naquadah.org/?p=awesome.git;a=blobdiff;f=awesomeConfig.cmake;fp=awesomeConfig.cmake;h=3b17e9ab50722d01d8fe66900d83dd9fc648d5c4;hp=fba2c6789526b2a27668e4531dbd2b806f756565;hb=97f66c57b57b2f3eb5bef654266e67a5ae235759;hpb=9a247794254c84a2deb2c3dcb6aebdf4347bb60f" title="diff">D</a><a href="http://git.naquadah.org/?p=awesome.git;a=history;f=awesomeConfig.cmake;h=97f66c57b57b2f3eb5bef654266e67a5ae235759" title="history">H</a>] awesomeConfig.cmake</li>\u000a<li>[<a href="http://git.naquadah.org/?p=awesome.git;a=blobdiff;f=draw.c;fp=draw.c;h=565aeafcb0c8a2988c1ba8bab526b7c5bdff5cd3;hp=1d9535d06d653faf44901bd1956bb8aede8ddab3;hb=97f66c57b57b2f3eb5bef654266e67a5ae235759;hpb=9a247794254c84a2deb2c3dcb6aebdf4347bb60f" title="diff">D</a><a href="http://git.naquadah.org/?p=awesome.git;a=history;f=draw.c;h=97f66c57b57b2f3eb5bef654266e67a5ae235759" title="history">H</a>] draw.c</li>\u000a<li>[<a href="http://git.naquadah.org/?p=awesome.git;a=blobdiff;f=draw.h;fp=draw.h;h=3993f8b67a3ec2b89153787c900c9f7bad13b404;hp=3295a75b35abe749c2aa3f3c108369b6b1ed2df6;hb=97f66c57b57b2f3eb5bef654266e67a5ae235759;hpb=9a247794254c84a2deb2c3dcb6aebdf4347bb60f" title="diff">D</a><a href="http://git.naquadah.org/?p=awesome.git;a=history;f=draw.h;h=97f66c57b57b2f3eb5bef654266e67a5ae235759" title="history">H</a>] draw.h</li>\u000a</ul>\u000a</div>
p790
sg11
g12
((I2010
I8
I20
I9
I56
I23
I4
I232
I0
t(dtRp791
sg108
g12
((I2010
I8
I20
I9
I56
I23
I4
I232
I0
t(dtRp792
sg34
VAdd drawing functions that will be needed later on
p793
sg32
VUli Schlachter (psychon@znc.in)
p794
sg14
(lp795
g1
(g2
g3
(dp796
S'href'
p797
Vhttp://git.naquadah.org/?p=awesome.git;a=commitdiff;h=97f66c57b57b2f3eb5bef654266e67a5ae235759
p798
sS'type'
p799
Vtext/html
p800
sS'rel'
p801
Valternate
p802
stRp803
asg121
(lp804
g1
(g2
g3
(dp805
g45
Vhttp://git.naquadah.org/
p806
sg47
g125
sg49
g790
sg50
NstRp807
asS'title_detail'
p808
g1
(g2
g3
(dp809
g45
S'http://git.naquadah.org/?p=awesome.git;a=atom'
p810
sg47
g130
sg49
g793
sg50
NstRp811
sg57
g798
sg132
(lp812
g1
(g2
g3
(dp813
g40
VUli Schlachter
p814
sg136
Vpsychon@znc.in
p815
stRp816
asg139
V2010-08-20T09:56:23Z
p817
sg93
(lp818
g661
aV*
ag662
asS'author_detail'
p819
g1
(g2
g3
(dp820
g40
VUli Schlachter
p821
sg136
Vpsychon@znc.in
p822
stRp823
sS'id'
p824
Vhttp://git.naquadah.org/?p=awesome.git;a=commitdiff;h=97f66c57b57b2f3eb5bef654266e67a5ae235759
p825
stRp826
ag1
(g2
g3
(dp827
g7
V2010-08-20T20:27:07Z
p828
sg9
V<div>\u000a<pre>\u000aImplement color parsing\u000a\u000aThis adds a lua module for parsing colors. Named colors like "black" aren't\u000asupported, but #rrggbb and #rrggbbaa colors do work.\u000a\u000aSigned-off-by: Uli Schlachter &lt;psychon@znc.in&gt;\u000a</pre><ul>\u000a<li>[<a href="http://git.naquadah.org/?p=awesome.git;a=blobdiff;f=lib/gears/color.lua.in;fp=lib/gears/color.lua.in;h=8e4ff9c47cea26953f2993c8d6b122823fb0c5ef;hp=0000000000000000000000000000000000000000;hb=9a247794254c84a2deb2c3dcb6aebdf4347bb60f;hpb=44f64eee58f20717d9508360641a775d0b4b2459" title="diff">D</a><a href="http://git.naquadah.org/?p=awesome.git;a=history;f=lib/gears/color.lua.in;h=9a247794254c84a2deb2c3dcb6aebdf4347bb60f" title="history">H</a>] lib/gears/color.lua.in</li>\u000a<li>[<a href="http://git.naquadah.org/?p=awesome.git;a=blobdiff;f=lib/gears/init.lua.in;fp=lib/gears/init.lua.in;h=5920eeaf68db67564bee70214b11319426d68bae;hp=0000000000000000000000000000000000000000;hb=9a247794254c84a2deb2c3dcb6aebdf4347bb60f;hpb=44f64eee58f20717d9508360641a775d0b4b2459" title="diff">D</a><a href="http://git.naquadah.org/?p=awesome.git;a=history;f=lib/gears/init.lua.in;h=9a247794254c84a2deb2c3dcb6aebdf4347bb60f" title="history">H</a>] lib/gears/init.lua.in</li>\u000a</ul>\u000a</div>
p829
sg11
g12
((I2010
I8
I20
I20
I27
I7
I4
I232
I0
t(dtRp830
sg108
g12
((I2010
I8
I20
I20
I27
I7
I4
I232
I0
t(dtRp831
sg34
VImplement color parsing
p832
sg32
VUli Schlachter (psychon@znc.in)
p833
sg14
(lp834
g1
(g2
g3
(dp835
S'href'
p836
Vhttp://git.naquadah.org/?p=awesome.git;a=commitdiff;h=9a247794254c84a2deb2c3dcb6aebdf4347bb60f
p837
sS'type'
p838
Vtext/html
p839
sS'rel'
p840
Valternate
p841
stRp842
asg121
(lp843
g1
(g2
g3
(dp844
g45
Vhttp://git.naquadah.org/
p845
sg47
g125
sg49
g829
sg50
NstRp846
asS'title_detail'
p847
g1
(g2
g3
(dp848
g45
S'http://git.naquadah.org/?p=awesome.git;a=atom'
p849
sg47
g130
sg49
g832
sg50
NstRp850
sg57
g837
sg132
(lp851
g1
(g2
g3
(dp852
g40
VUli Schlachter
p853
sg136
Vpsychon@znc.in
p854
stRp855
asg139
V2010-08-20T20:27:07Z
p856
sg93
(lp857
g661
aV*
ag662
asS'author_detail'
p858
g1
(g2
g3
(dp859
g40
VUli Schlachter
p860
sg136
Vpsychon@znc.in
p861
stRp862
sS'id'
p863
Vhttp://git.naquadah.org/?p=awesome.git;a=commitdiff;h=9a247794254c84a2deb2c3dcb6aebdf4347bb60f
p864
stRp865
ag1
(g2
g3
(dp866
g7
V2010-08-22T15:01:28Z
p867
sg9
V<div>\u000a<pre>\u000aAutomatically load oocairo and oopango on startup\u000a\u000aSigned-off-by: Uli Schlachter &lt;psychon@znc.in&gt;\u000a</pre><ul>\u000a<li>[<a href="http://git.naquadah.org/?p=awesome.git;a=blobdiff;f=awesomeConfig.cmake;fp=awesomeConfig.cmake;h=fba2c6789526b2a27668e4531dbd2b806f756565;hp=c657d4cc000e5b831beb1e590916c4bde3eb60c9;hb=44f64eee58f20717d9508360641a775d0b4b2459;hpb=c38e326242c9823df8fe6c415775ee3eebd58a61" title="diff">D</a><a href="http://git.naquadah.org/?p=awesome.git;a=history;f=awesomeConfig.cmake;h=44f64eee58f20717d9508360641a775d0b4b2459" title="history">H</a>] awesomeConfig.cmake</li>\u000a<li>[<a href="http://git.naquadah.org/?p=awesome.git;a=blobdiff;f=luaa.c;fp=luaa.c;h=44009f6815397ecdbea16be0261d28fc9e25b950;hp=45d5e74bb87b70a61f1fe08d43db54b5922b2aaf;hb=44f64eee58f20717d9508360641a775d0b4b2459;hpb=c38e326242c9823df8fe6c415775ee3eebd58a61" title="diff">D</a><a href="http://git.naquadah.org/?p=awesome.git;a=history;f=luaa.c;h=44f64eee58f20717d9508360641a775d0b4b2459" title="history">H</a>] luaa.c</li>\u000a</ul>\u000a</div>
p868
sg11
g12
((I2010
I8
I22
I15
I1
I28
I6
I234
I0
t(dtRp869
sg108
g12
((I2010
I8
I22
I15
I1
I28
I6
I234
I0
t(dtRp870
sg34
VAutomatically load oocairo and oopango on startup
p871
sg32
VUli Schlachter (psychon@znc.in)
p872
sg14
(lp873
g1
(g2
g3
(dp874
S'href'
p875
Vhttp://git.naquadah.org/?p=awesome.git;a=commitdiff;h=44f64eee58f20717d9508360641a775d0b4b2459
p876
sS'type'
p877
Vtext/html
p878
sS'rel'
p879
Valternate
p880
stRp881
asg121
(lp882
g1
(g2
g3
(dp883
g45
Vhttp://git.naquadah.org/
p884
sg47
g125
sg49
g868
sg50
NstRp885
asS'title_detail'
p886
g1
(g2
g3
(dp887
g45
S'http://git.naquadah.org/?p=awesome.git;a=atom'
p888
sg47
g130
sg49
g871
sg50
NstRp889
sg57
g876
sg132
(lp890
g1
(g2
g3
(dp891
g40
VUli Schlachter
p892
sg136
Vpsychon@znc.in
p893
stRp894
asg139
V2010-08-22T15:01:28Z
p895
sg93
(lp896
g661
aV*
ag662
asS'author_detail'
p897
g1
(g2
g3
(dp898
g40
VUli Schlachter
p899
sg136
Vpsychon@znc.in
p900
stRp901
sS'id'
p902
Vhttp://git.naquadah.org/?p=awesome.git;a=commitdiff;h=44f64eee58f20717d9508360641a775d0b4b2459
p903
stRp904
ag1
(g2
g3
(dp905
S'updated'
p906
V2010-09-08T08:18:21Z
p907
sS'subtitle'
p908
V<div>\u000a<pre>\u000aRevert "tag.lua: check name argument to add() is valid"\u000a\u000aThis reverts commit 6cb61939c4857cedcdc78873b713f3c21a92f056.\u000a</pre><ul>\u000a<li>[<a href="http://git.naquadah.org/?p=awesome.git;a=blobdiff;f=lib/awful/tag.lua.in;fp=lib/awful/tag.lua.in;h=58d8fbcdd53d62ee7e8bcbdb8721f3d858f012d1;hp=9b8c1e5c7b7f0b2b6480704c264e63a3eafe22d1;hb=c38e326242c9823df8fe6c415775ee3eebd58a61;hpb=e77b979092b3900720e7aefffd0082acf781e364" title="diff">D</a><a href="http://git.naquadah.org/?p=awesome.git;a=history;f=lib/awful/tag.lua.in;h=c38e326242c9823df8fe6c415775ee3eebd58a61" title="history">H</a>] lib/awful/tag.lua.in</li>\u000a</ul>\u000a</div>
p909
sS'updated_parsed'
p910
g12
((I2010
I9
I8
I8
I18
I21
I2
I251
I0
t(dtRp911
sS'published_parsed'
p912
g12
((I2010
I9
I8
I8
I18
I21
I2
I251
I0
t(dtRp913
sS'author'
p914
VJulien Danjou (julien@danjou.info)
p915
sS'title'
p916
VRevert "tag.lua: check name argument to add() is valid"
p917
sS'links'
p918
(lp919
g1
(g2
g3
(dp920
S'href'
p921
Vhttp://git.naquadah.org/?p=awesome.git;a=commitdiff;h=c38e326242c9823df8fe6c415775ee3eebd58a61
p922
sS'type'
p923
Vtext/html
p924
sS'rel'
p925
Valternate
p926
stRp927
asS'content'
p928
(lp929
g1
(g2
g3
(dp930
S'base'
p931
Vhttp://git.naquadah.org/
p932
sS'type'
p933
S'application/xhtml+xml'
p934
sS'language'
p935
NsS'value'
p936
g909
stRp937
asS'title_detail'
p938
g1
(g2
g3
(dp939
g931
S'http://git.naquadah.org/?p=awesome.git;a=atom'
p940
sg933
S'text/html'
p941
sg935
Nsg936
g917
stRp942
sS'link'
p943
g922
sS'contributors'
p944
(lp945
g1
(g2
g3
(dp946
S'name'
p947
VJulien Danjou
p948
sS'email'
p949
Vjulien@danjou.info
p950
stRp951
asS'published'
p952
V2010-09-08T08:18:21Z
p953
sS'canto_state'
p954
(lp955
g661
aV*
ag662
asS'author_detail'
p956
g1
(g2
g3
(dp957
g947
VJulien Danjou
p958
sg949
Vjulien@danjou.info
p959
stRp960
sS'id'
p961
Vhttp://git.naquadah.org/?p=awesome.git;a=commitdiff;h=c38e326242c9823df8fe6c415775ee3eebd58a61
p962
stRp963
ag1
(g2
g3
(dp964
g906
V2010-09-03T15:43:36Z
p965
sg908
V<div>\u000a<pre>\u000aawful.placement.no_overlap: Ignore desktop clients\u000a\u000aEWMH describes desktop windows like this:\u000a\u000a"_NET_WM_WINDOW_TYPE_DESKTOP indicates a desktop feature. This can include a\u000asingle window containing desktop icons with the same dimensions as the screen,\u000aallowing the desktop environment to have full control of the desktop, without\u000athe need for proxying root window clicks."\u000a\u000aAn example for such a window is nautilus' virtual root window. Naturally, such a\u000awindow would always overlap with any given client, so awful.placement.no_overlap\u000ajust didn't do anything at all. The fix is to ignore such clients for placement\u000acalculations.\u000a\u000aSigned-off-by: Uli Schlachter &lt;psychon@znc.in&gt;\u000a</pre><ul>\u000a<li>[<a href="http://git.naquadah.org/?p=awesome.git;a=blobdiff;f=lib/awful/placement.lua.in;fp=lib/awful/placement.lua.in;h=38f39e06c93b4a17f18b95316b49cb5edbfb1d99;hp=d6a27b9788ed3c6d3f291317f9f83ae97f00fa5e;hb=e77b979092b3900720e7aefffd0082acf781e364;hpb=9b972842c3e93c3aeb90273b5d9ca4c1b19adf38" title="diff">D</a><a href="http://git.naquadah.org/?p=awesome.git;a=history;f=lib/awful/placement.lua.in;h=e77b979092b3900720e7aefffd0082acf781e364" title="history">H</a>] lib/awful/placement.lua.in</li>\u000a</ul>\u000a</div>
p966
sg910
g12
((I2010
I9
I3
I15
I43
I36
I4
I246
I0
t(dtRp967
sg912
g12
((I2010
I9
I3
I15
I43
I36
I4
I246
I0
t(dtRp968
sg914
VUli Schlachter (psychon@znc.in)
p969
sg916
Vawful.placement.no_overlap: Ignore desktop clients
p970
sg918
(lp971
g1
(g2
g3
(dp972
S'href'
p973
Vhttp://git.naquadah.org/?p=awesome.git;a=commitdiff;h=e77b979092b3900720e7aefffd0082acf781e364
p974
sS'type'
p975
Vtext/html
p976
sS'rel'
p977
Valternate
p978
stRp979
asg928
(lp980
g1
(g2
g3
(dp981
g931
Vhttp://git.naquadah.org/
p982
sg933
g934
sg935
Nsg936
g966
stRp983
asS'title_detail'
p984
g1
(g2
g3
(dp985
g931
S'http://git.naquadah.org/?p=awesome.git;a=atom'
p986
sg933
g941
sg935
Nsg936
g970
stRp987
sg943
g974
sg944
(lp988
g1
(g2
g3
(dp989
g947
VUli Schlachter
p990
sg949
Vpsychon@znc.in
p991
stRp992
asg952
V2010-09-03T15:43:36Z
p993
sg954
(lp994
g661
aV*
ag662
asS'author_detail'
p995
g1
(g2
g3
(dp996
g947
VUli Schlachter
p997
sg949
Vpsychon@znc.in
p998
stRp999
sS'id'
p1000
Vhttp://git.naquadah.org/?p=awesome.git;a=commitdiff;h=e77b979092b3900720e7aefffd0082acf781e364
p1001
stRp1002
ag1
(g2
g3
(dp1003
g906
V2010-09-02T17:37:10Z
p1004
sg908
V<div>\u000a<pre>\u000axutil: Remove an unused define\u000a\u000aSigned-off-by: Uli Schlachter &lt;psychon@znc.in&gt;\u000a</pre><ul>\u000a<li>[<a href="http://git.naquadah.org/?p=awesome.git;a=blobdiff;f=common/xutil.c;fp=common/xutil.c;h=fd53d9cd4b6e6a33ceba493b5d1a42db69ec5a05;hp=1cd4bc7cda603d016f1fc15667482ea2103197f6;hb=9b972842c3e93c3aeb90273b5d9ca4c1b19adf38;hpb=fc3cac5f73d9b88e49d80a5f602e2001de98d850" title="diff">D</a><a href="http://git.naquadah.org/?p=awesome.git;a=history;f=common/xutil.c;h=9b972842c3e93c3aeb90273b5d9ca4c1b19adf38" title="history">H</a>] common/xutil.c</li>\u000a</ul>\u000a</div>
p1005
sg910
g12
((I2010
I9
I2
I17
I37
I10
I3
I245
I0
t(dtRp1006
sg912
g12
((I2010
I9
I2
I17
I37
I10
I3
I245
I0
t(dtRp1007
sg914
VUli Schlachter (psychon@znc.in)
p1008
sg916
Vxutil: Remove an unused define
p1009
sg918
(lp1010
g1
(g2
g3
(dp1011
S'href'
p1012
Vhttp://git.naquadah.org/?p=awesome.git;a=commitdiff;h=9b972842c3e93c3aeb90273b5d9ca4c1b19adf38
p1013
sS'type'
p1014
Vtext/html
p1015
sS'rel'
p1016
Valternate
p1017
stRp1018
asg928
(lp1019
g1
(g2
g3
(dp1020
g931
Vhttp://git.naquadah.org/
p1021
sg933
g934
sg935
Nsg936
g1005
stRp1022
asS'title_detail'
p1023
g1
(g2
g3
(dp1024
g931
S'http://git.naquadah.org/?p=awesome.git;a=atom'
p1025
sg933
g941
sg935
Nsg936
g1009
stRp1026
sg943
g1013
sg944
(lp1027
g1
(g2
g3
(dp1028
g947
VUli Schlachter
p1029
sg949
Vpsychon@znc.in
p1030
stRp1031
asg952
V2010-09-02T17:37:10Z
p1032
sg954
(lp1033
g661
aV*
ag662
asS'author_detail'
p1034
g1
(g2
g3
(dp1035
g947
VUli Schlachter
p1036
sg949
Vpsychon@znc.in
p1037
stRp1038
sS'id'
p1039
Vhttp://git.naquadah.org/?p=awesome.git;a=commitdiff;h=9b972842c3e93c3aeb90273b5d9ca4c1b19adf38
p1040
stRp1041
ag1
(g2
g3
(dp1042
S'updated'
p1043
V2010-09-02T17:28:12Z
p1044
sS'subtitle'
p1045
V<div>\u000a<pre>\u000aposition: This is unused, so remove\u000a\u000aSigned-off-by: Uli Schlachter &lt;psychon@znc.in&gt;\u000a</pre><ul>\u000a<li>[<a href="http://git.naquadah.org/?p=awesome.git;a=blobdiff;f=common/util.c;fp=common/util.c;h=c23396d6ae90e228b04cb268c2a5c438f7612438;hp=b2987b705b7518884a2b6d4485195edfb59b3a96;hb=fc3cac5f73d9b88e49d80a5f602e2001de98d850;hpb=6bb646861c23aa5bc791a2a91f8e6c51ff6eaeb4" title="diff">D</a><a href="http://git.naquadah.org/?p=awesome.git;a=history;f=common/util.c;h=fc3cac5f73d9b88e49d80a5f602e2001de98d850" title="history">H</a>] common/util.c</li>\u000a<li>[<a href="http://git.naquadah.org/?p=awesome.git;a=blobdiff;f=common/util.h;fp=common/util.h;h=0a40c3444678957328f7d95f1a7e5def770ee817;hp=f6af8d6176f52e87423b6cf47ee9f7f53d59d970;hb=fc3cac5f73d9b88e49d80a5f602e2001de98d850;hpb=6bb646861c23aa5bc791a2a91f8e6c51ff6eaeb4" title="diff">D</a><a href="http://git.naquadah.org/?p=awesome.git;a=history;f=common/util.h;h=fc3cac5f73d9b88e49d80a5f602e2001de98d850" title="history">H</a>] common/util.h</li>\u000a</ul>\u000a</div>
p1046
sS'updated_parsed'
p1047
g12
((I2010
I9
I2
I17
I28
I12
I3
I245
I0
t(dtRp1048
sS'published_parsed'
p1049
g12
((I2010
I9
I2
I17
I28
I12
I3
I245
I0
t(dtRp1050
sS'author'
p1051
VUli Schlachter (psychon@znc.in)
p1052
sS'title'
p1053
Vposition: This is unused, so remove
p1054
sS'links'
p1055
(lp1056
g1
(g2
g3
(dp1057
S'href'
p1058
Vhttp://git.naquadah.org/?p=awesome.git;a=commitdiff;h=fc3cac5f73d9b88e49d80a5f602e2001de98d850
p1059
sS'type'
p1060
Vtext/html
p1061
sS'rel'
p1062
Valternate
p1063
stRp1064
asS'content'
p1065
(lp1066
g1
(g2
g3
(dp1067
S'base'
p1068
Vhttp://git.naquadah.org/
p1069
sS'type'
p1070
S'application/xhtml+xml'
p1071
sS'language'
p1072
NsS'value'
p1073
g1046
stRp1074
asS'title_detail'
p1075
g1
(g2
g3
(dp1076
g1068
S'http://git.naquadah.org/?p=awesome.git;a=atom'
p1077
sg1070
S'text/html'
p1078
sg1072
Nsg1073
g1054
stRp1079
sS'link'
p1080
g1059
sS'contributors'
p1081
(lp1082
g1
(g2
g3
(dp1083
S'name'
p1084
VUli Schlachter
p1085
sS'email'
p1086
Vpsychon@znc.in
p1087
stRp1088
asS'published'
p1089
V2010-09-02T17:28:12Z
p1090
sS'canto_state'
p1091
(lp1092
g661
aV*
ag662
asS'author_detail'
p1093
g1
(g2
g3
(dp1094
g1084
VUli Schlachter
p1095
sg1086
Vpsychon@znc.in
p1096
stRp1097
sS'id'
p1098
Vhttp://git.naquadah.org/?p=awesome.git;a=commitdiff;h=fc3cac5f73d9b88e49d80a5f602e2001de98d850
p1099
stRp1100
ag1
(g2
g3
(dp1101
g1043
V2010-09-02T17:24:39Z
p1102
sg1045
V<div>\u000a<pre>\u000aStop using gperf\u000a\u000aSigned-off-by: Uli Schlachter &lt;psychon@znc.in&gt;\u000a</pre><ul>\u000a<li>[<a href="http://git.naquadah.org/?p=awesome.git;a=blobdiff;f=CMakeLists.txt;fp=CMakeLists.txt;h=73faece457ce510ba7af7e7f03f0401111fcf7c3;hp=b0a5220889ba34b2b0ebce6e01b4179cd60fb61f;hb=6bb646861c23aa5bc791a2a91f8e6c51ff6eaeb4;hpb=1f9547b4e0f48d2eab9933296b3c5e0a7f3d1580" title="diff">D</a><a href="http://git.naquadah.org/?p=awesome.git;a=history;f=CMakeLists.txt;h=6bb646861c23aa5bc791a2a91f8e6c51ff6eaeb4" title="history">H</a>] CMakeLists.txt</li>\u000a<li>[<a href="http://git.naquadah.org/?p=awesome.git;a=blobdiff;f=awesomeConfig.cmake;fp=awesomeConfig.cmake;h=c657d4cc000e5b831beb1e590916c4bde3eb60c9;hp=7480cefe6a6ae9b95c5ce52c0154e5be6971976a;hb=6bb646861c23aa5bc791a2a91f8e6c51ff6eaeb4;hpb=1f9547b4e0f48d2eab9933296b3c5e0a7f3d1580" title="diff">D</a><a href="http://git.naquadah.org/?p=awesome.git;a=history;f=awesomeConfig.cmake;h=6bb646861c23aa5bc791a2a91f8e6c51ff6eaeb4" title="history">H</a>] awesomeConfig.cmake</li>\u000a<li>[<a href="http://git.naquadah.org/?p=awesome.git;a=blobdiff;f=build-utils/gperf.sh;fp=build-utils/gperf.sh;h=0000000000000000000000000000000000000000;hp=96587fcfd9c1ca5bdaacae557bb94aa577dabb24;hb=6bb646861c23aa5bc791a2a91f8e6c51ff6eaeb4;hpb=1f9547b4e0f48d2eab9933296b3c5e0a7f3d1580" title="diff">D</a><a href="http://git.naquadah.org/?p=awesome.git;a=history;f=build-utils/gperf.sh;h=6bb646861c23aa5bc791a2a91f8e6c51ff6eaeb4" title="history">H</a>] build-utils/gperf.sh</li>\u000a<li>[<a href="http://git.naquadah.org/?p=awesome.git;a=blobdiff;f=common/luaclass.h;fp=common/luaclass.h;h=db1f2cf26c832c97065b80084405c97bcbf1ad56;hp=49080458ec8df6cf926b611c532d4bc93c8b47a6;hb=6bb646861c23aa5bc791a2a91f8e6c51ff6eaeb4;hpb=1f9547b4e0f48d2eab9933296b3c5e0a7f3d1580" title="diff">D</a><a href="http://git.naquadah.org/?p=awesome.git;a=history;f=common/luaclass.h;h=6bb646861c23aa5bc791a2a91f8e6c51ff6eaeb4" title="history">H</a>] common/luaclass.h</li>\u000a<li>[<a href="http://git.naquadah.org/?p=awesome.git;a=blobdiff;f=objects/widget.h;fp=objects/widget.h;h=e975e0453448f2537069bf23b014bb4895ea1e00;hp=eb4b432487941dc9d42d25c58d85b3802028f73c;hb=6bb646861c23aa5bc791a2a91f8e6c51ff6eaeb4;hpb=1f9547b4e0f48d2eab9933296b3c5e0a7f3d1580" title="diff">D</a><a href="http://git.naquadah.org/?p=awesome.git;a=history;f=objects/widget.h;h=6bb646861c23aa5bc791a2a91f8e6c51ff6eaeb4" title="history">H</a>] objects/widget.h</li>\u000a<li>[<a href="http://git.naquadah.org/?p=awesome.git;a=blobdiff;f=objects/widgets/textbox.c;fp=objects/widgets/textbox.c;h=0d0bc77e3945cd98e2627add26a92f2f8c61e436;hp=af7ad66e80fec7b692dce7f9dadc10997822b8d9;hb=6bb646861c23aa5bc791a2a91f8e6c51ff6eaeb4;hpb=1f9547b4e0f48d2eab9933296b3c5e0a7f3d1580" title="diff">D</a><a href="http://git.naquadah.org/?p=awesome.git;a=history;f=objects/widgets/textbox.c;h=6bb646861c23aa5bc791a2a91f8e6c51ff6eaeb4" title="history">H</a>] objects/widgets/textbox.c</li>\u000a</ul>\u000a</div>
p1103
sg1047
g12
((I2010
I9
I2
I17
I24
I39
I3
I245
I0
t(dtRp1104
sg1049
g12
((I2010
I9
I2
I17
I24
I39
I3
I245
I0
t(dtRp1105
sg1051
VUli Schlachter (psychon@znc.in)
p1106
sg1053
VStop using gperf
p1107
sg1055
(lp1108
g1
(g2
g3
(dp1109
S'href'
p1110
Vhttp://git.naquadah.org/?p=awesome.git;a=commitdiff;h=6bb646861c23aa5bc791a2a91f8e6c51ff6eaeb4
p1111
sS'type'
p1112
Vtext/html
p1113
sS'rel'
p1114
Valternate
p1115
stRp1116
asg1065
(lp1117
g1
(g2
g3
(dp1118
g1068
Vhttp://git.naquadah.org/
p1119
sg1070
g1071
sg1072
Nsg1073
g1103
stRp1120
asS'title_detail'
p1121
g1
(g2
g3
(dp1122
g1068
S'http://git.naquadah.org/?p=awesome.git;a=atom'
p1123
sg1070
g1078
sg1072
Nsg1073
g1107
stRp1124
sg1080
g1111
sg1081
(lp1125
g1
(g2
g3
(dp1126
g1084
VUli Schlachter
p1127
sg1086
Vpsychon@znc.in
p1128
stRp1129
asg1089
V2010-09-02T17:24:39Z
p1130
sg1091
(lp1131
g661
aV*
ag662
asS'author_detail'
p1132
g1
(g2
g3
(dp1133
g1084
VUli Schlachter
p1134
sg1086
Vpsychon@znc.in
p1135
stRp1136
sS'id'
p1137
Vhttp://git.naquadah.org/?p=awesome.git;a=commitdiff;h=6bb646861c23aa5bc791a2a91f8e6c51ff6eaeb4
p1138
stRp1139
ag1
(g2
g3
(dp1140
g1043
V2010-09-02T17:12:21Z
p1141
sg1045
V<div>\u000a<pre>\u000acommon/xutil.c: Stop using a_tokenize\u000a\u000aSigned-off-by: Uli Schlachter &lt;psychon@znc.in&gt;\u000a</pre><ul>\u000a<li>[<a href="http://git.naquadah.org/?p=awesome.git;a=blobdiff;f=common/xutil.c;fp=common/xutil.c;h=1cd4bc7cda603d016f1fc15667482ea2103197f6;hp=3676a3cd23df79a3c4de3799a3382d88941770a5;hb=1f9547b4e0f48d2eab9933296b3c5e0a7f3d1580;hpb=bf3aa6d79e7d839f39ab543028eca569456e0162" title="diff">D</a><a href="http://git.naquadah.org/?p=awesome.git;a=history;f=common/xutil.c;h=1f9547b4e0f48d2eab9933296b3c5e0a7f3d1580" title="history">H</a>] common/xutil.c</li>\u000a<li>[<a href="http://git.naquadah.org/?p=awesome.git;a=blobdiff;f=common/xutil.h;fp=common/xutil.h;h=b87412c58708536e7863f1695a10a8ab1d72eb92;hp=baabc0b71ca44df6b4114236c01338d80e20b457;hb=1f9547b4e0f48d2eab9933296b3c5e0a7f3d1580;hpb=bf3aa6d79e7d839f39ab543028eca569456e0162" title="diff">D</a><a href="http://git.naquadah.org/?p=awesome.git;a=history;f=common/xutil.h;h=1f9547b4e0f48d2eab9933296b3c5e0a7f3d1580" title="history">H</a>] common/xutil.h</li>\u000a<li>[<a href="http://git.naquadah.org/?p=awesome.git;a=blobdiff;f=objects/key.c;fp=objects/key.c;h=5f61ae7ce31f9b63d014d0643140be325cae45f0;hp=4c2c80d911c21db28666ff1207279826b5c99ed3;hb=1f9547b4e0f48d2eab9933296b3c5e0a7f3d1580;hpb=bf3aa6d79e7d839f39ab543028eca569456e0162" title="diff">D</a><a href="http://git.naquadah.org/?p=awesome.git;a=history;f=objects/key.c;h=1f9547b4e0f48d2eab9933296b3c5e0a7f3d1580" title="history">H</a>] objects/key.c</li>\u000a</ul>\u000a</div>
p1142
sg1047
g12
((I2010
I9
I2
I17
I12
I21
I3
I245
I0
t(dtRp1143
sg1049
g12
((I2010
I9
I2
I17
I12
I21
I3
I245
I0
t(dtRp1144
sg1051
VUli Schlachter (psychon@znc.in)
p1145
sg1053
Vcommon/xutil.c: Stop using a_tokenize
p1146
sg1055
(lp1147
g1
(g2
g3
(dp1148
S'href'
p1149
Vhttp://git.naquadah.org/?p=awesome.git;a=commitdiff;h=1f9547b4e0f48d2eab9933296b3c5e0a7f3d1580
p1150
sS'type'
p1151
Vtext/html
p1152
sS'rel'
p1153
Valternate
p1154
stRp1155
asg1065
(lp1156
g1
(g2
g3
(dp1157
g1068
Vhttp://git.naquadah.org/
p1158
sg1070
g1071
sg1072
Nsg1073
g1142
stRp1159
asS'title_detail'
p1160
g1
(g2
g3
(dp1161
g1068
S'http://git.naquadah.org/?p=awesome.git;a=atom'
p1162
sg1070
g1078
sg1072
Nsg1073
g1146
stRp1163
sg1080
g1150
sg1081
(lp1164
g1
(g2
g3
(dp1165
g1084
VUli Schlachter
p1166
sg1086
Vpsychon@znc.in
p1167
stRp1168
asg1089
V2010-09-02T17:12:21Z
p1169
sg1091
(lp1170
g661
aV*
ag662
asS'author_detail'
p1171
g1
(g2
g3
(dp1172
g1084
VUli Schlachter
p1173
sg1086
Vpsychon@znc.in
p1174
stRp1175
sS'id'
p1176
Vhttp://git.naquadah.org/?p=awesome.git;a=commitdiff;h=1f9547b4e0f48d2eab9933296b3c5e0a7f3d1580
p1177
stRp1178
ag1
(g2
g3
(dp1179
S'updated'
p1180
V2010-09-02T17:13:27Z
p1181
sS'subtitle'
p1182
V<div>\u000a<pre>\u000aclient: Stop using a_tokenize\u000a\u000aSigned-off-by: Uli Schlachter &lt;psychon@znc.in&gt;\u000a</pre><ul>\u000a<li>[<a href="http://git.naquadah.org/?p=awesome.git;a=blobdiff;f=objects/client.c;fp=objects/client.c;h=04cac604149076e5e590ae10c5730942fd568bfe;hp=dc51cdc52df73a5818ec095b7e1f8f8bb69bf27c;hb=bf3aa6d79e7d839f39ab543028eca569456e0162;hpb=8e0cdc86fd2c37c2e0d87aaaa8b2c16b0a1e7ea2" title="diff">D</a><a href="http://git.naquadah.org/?p=awesome.git;a=history;f=objects/client.c;h=bf3aa6d79e7d839f39ab543028eca569456e0162" title="history">H</a>] objects/client.c</li>\u000a</ul>\u000a</div>
p1183
sS'updated_parsed'
p1184
g12
((I2010
I9
I2
I17
I13
I27
I3
I245
I0
t(dtRp1185
sS'published_parsed'
p1186
g12
((I2010
I9
I2
I17
I13
I27
I3
I245
I0
t(dtRp1187
sS'author'
p1188
VUli Schlachter (psychon@znc.in)
p1189
sS'title'
p1190
Vclient: Stop using a_tokenize
p1191
sS'links'
p1192
(lp1193
g1
(g2
g3
(dp1194
S'href'
p1195
Vhttp://git.naquadah.org/?p=awesome.git;a=commitdiff;h=bf3aa6d79e7d839f39ab543028eca569456e0162
p1196
sS'type'
p1197
Vtext/html
p1198
sS'rel'
p1199
Valternate
p1200
stRp1201
asS'content'
p1202
(lp1203
g1
(g2
g3
(dp1204
S'base'
p1205
Vhttp://git.naquadah.org/
p1206
sS'type'
p1207
S'application/xhtml+xml'
p1208
sS'language'
p1209
NsS'value'
p1210
g1183
stRp1211
asS'title_detail'
p1212
g1
(g2
g3
(dp1213
g1205
S'http://git.naquadah.org/?p=awesome.git;a=atom'
p1214
sg1207
S'text/html'
p1215
sg1209
Nsg1210
g1191
stRp1216
sS'link'
p1217
g1196
sS'contributors'
p1218
(lp1219
g1
(g2
g3
(dp1220
S'name'
p1221
VUli Schlachter
p1222
sS'email'
p1223
Vpsychon@znc.in
p1224
stRp1225
asS'published'
p1226
V2010-09-02T17:13:27Z
p1227
sS'canto_state'
p1228
(lp1229
g661
aV*
ag662
asS'author_detail'
p1230
g1
(g2
g3
(dp1231
g1221
VUli Schlachter
p1232
sg1223
Vpsychon@znc.in
p1233
stRp1234
sS'id'
p1235
Vhttp://git.naquadah.org/?p=awesome.git;a=commitdiff;h=bf3aa6d79e7d839f39ab543028eca569456e0162
p1236
stRp1237
ag1
(g2
g3
(dp1238
g1180
V2010-09-02T17:09:34Z
p1239
sg1182
V<div>\u000a<pre>\u000amouse: Stop using a_tokenize()\u000a\u000aSigned-off-by: Uli Schlachter &lt;psychon@znc.in&gt;\u000a</pre><ul>\u000a<li>[<a href="http://git.naquadah.org/?p=awesome.git;a=blobdiff;f=mouse.c;fp=mouse.c;h=410bf966f2c2c8a74a0cbdf5b748051ac38c6f50;hp=e25a6e3deed103d1e9057180554a220b4c5a17f2;hb=8e0cdc86fd2c37c2e0d87aaaa8b2c16b0a1e7ea2;hpb=f2e976743434a2479eefb3987b65b0aa3e5c8ef8" title="diff">D</a><a href="http://git.naquadah.org/?p=awesome.git;a=history;f=mouse.c;h=8e0cdc86fd2c37c2e0d87aaaa8b2c16b0a1e7ea2" title="history">H</a>] mouse.c</li>\u000a</ul>\u000a</div>
p1240
sg1184
g12
((I2010
I9
I2
I17
I9
I34
I3
I245
I0
t(dtRp1241
sg1186
g12
((I2010
I9
I2
I17
I9
I34
I3
I245
I0
t(dtRp1242
sg1188
VUli Schlachter (psychon@znc.in)
p1243
sg1190
Vmouse: Stop using a_tokenize()
p1244
sg1192
(lp1245
g1
(g2
g3
(dp1246
S'href'
p1247
Vhttp://git.naquadah.org/?p=awesome.git;a=commitdiff;h=8e0cdc86fd2c37c2e0d87aaaa8b2c16b0a1e7ea2
p1248
sS'type'
p1249
Vtext/html
p1250
sS'rel'
p1251
Valternate
p1252
stRp1253
asg1202
(lp1254
g1
(g2
g3
(dp1255
g1205
Vhttp://git.naquadah.org/
p1256
sg1207
g1208
sg1209
Nsg1210
g1240
stRp1257
asS'title_detail'
p1258
g1
(g2
g3
(dp1259
g1205
S'http://git.naquadah.org/?p=awesome.git;a=atom'
p1260
sg1207
g1215
sg1209
Nsg1210
g1244
stRp1261
sg1217
g1248
sg1218
(lp1262
g1
(g2
g3
(dp1263
g1221
VUli Schlachter
p1264
sg1223
Vpsychon@znc.in
p1265
stRp1266
asg1226
V2010-09-02T17:09:34Z
p1267
sg1228
(lp1268
g661
aV*
ag662
asS'author_detail'
p1269
g1
(g2
g3
(dp1270
g1221
VUli Schlachter
p1271
sg1223
Vpsychon@znc.in
p1272
stRp1273
sS'id'
p1274
Vhttp://git.naquadah.org/?p=awesome.git;a=commitdiff;h=8e0cdc86fd2c37c2e0d87aaaa8b2c16b0a1e7ea2
p1275
stRp1276
ag1
(g2
g3
(dp1277
g1180
V2010-09-02T17:08:08Z
p1278
sg1182
V<div>\u000a<pre>\u000aluaa: Stop using a_tokenize()\u000a\u000aSigned-off-by: Uli Schlachter &lt;psychon@znc.in&gt;\u000a</pre><ul>\u000a<li>[<a href="http://git.naquadah.org/?p=awesome.git;a=blobdiff;f=luaa.c;fp=luaa.c;h=45d5e74bb87b70a61f1fe08d43db54b5922b2aaf;hp=a3c5c57f8ca21fba310642ecdf5a1c25e4cf2fc9;hb=f2e976743434a2479eefb3987b65b0aa3e5c8ef8;hpb=56fd77139e5d2cebb02d8b2a6d0e3dde1c6b7c60" title="diff">D</a><a href="http://git.naquadah.org/?p=awesome.git;a=history;f=luaa.c;h=f2e976743434a2479eefb3987b65b0aa3e5c8ef8" title="history">H</a>] luaa.c</li>\u000a</ul>\u000a</div>
p1279
sg1184
g12
((I2010
I9
I2
I17
I8
I8
I3
I245
I0
t(dtRp1280
sg1186
g12
((I2010
I9
I2
I17
I8
I8
I3
I245
I0
t(dtRp1281
sg1188
VUli Schlachter (psychon@znc.in)
p1282
sg1190
Vluaa: Stop using a_tokenize()
p1283
sg1192
(lp1284
g1
(g2
g3
(dp1285
S'href'
p1286
Vhttp://git.naquadah.org/?p=awesome.git;a=commitdiff;h=f2e976743434a2479eefb3987b65b0aa3e5c8ef8
p1287
sS'type'
p1288
Vtext/html
p1289
sS'rel'
p1290
Valternate
p1291
stRp1292
asg1202
(lp1293
g1
(g2
g3
(dp1294
g1205
Vhttp://git.naquadah.org/
p1295
sg1207
g1208
sg1209
Nsg1210
g1279
stRp1296
asS'title_detail'
p1297
g1
(g2
g3
(dp1298
g1205
S'http://git.naquadah.org/?p=awesome.git;a=atom'
p1299
sg1207
g1215
sg1209
Nsg1210
g1283
stRp1300
sg1217
g1287
sg1218
(lp1301
g1
(g2
g3
(dp1302
g1221
VUli Schlachter
p1303
sg1223
Vpsychon@znc.in
p1304
stRp1305
asg1226
V2010-09-02T17:08:08Z
p1306
sg1228
(lp1307
g661
aV*
ag662
asS'author_detail'
p1308
g1
(g2
g3
(dp1309
g1221
VUli Schlachter
p1310
sg1223
Vpsychon@znc.in
p1311
stRp1312
sS'id'
p1313
Vhttp://git.naquadah.org/?p=awesome.git;a=commitdiff;h=f2e976743434a2479eefb3987b65b0aa3e5c8ef8
p1314
stRp1315
ag1
(g2
g3
(dp1316
S'updated'
p1317
V2010-09-02T17:04:48Z
p1318
sS'subtitle'
p1319
V<div>\u000a<pre>\u000adraw: Stop using a_tokenize\u000a\u000aSigned-off-by: Uli Schlachter &lt;psychon@znc.in&gt;\u000a</pre><ul>\u000a<li>[<a href="http://git.naquadah.org/?p=awesome.git;a=blobdiff;f=draw.c;fp=draw.c;h=1d9535d06d653faf44901bd1956bb8aede8ddab3;hp=2b23d3023d9d68043344b1599a07b4938bb63e91;hb=56fd77139e5d2cebb02d8b2a6d0e3dde1c6b7c60;hpb=f61dca706846d048f227433f38189c148075b293" title="diff">D</a><a href="http://git.naquadah.org/?p=awesome.git;a=history;f=draw.c;h=56fd77139e5d2cebb02d8b2a6d0e3dde1c6b7c60" title="history">H</a>] draw.c</li>\u000a<li>[<a href="http://git.naquadah.org/?p=awesome.git;a=blobdiff;f=draw.h;fp=draw.h;h=3295a75b35abe749c2aa3f3c108369b6b1ed2df6;hp=1d776cbb29872681237a2fa89ebef73e7b549d50;hb=56fd77139e5d2cebb02d8b2a6d0e3dde1c6b7c60;hpb=f61dca706846d048f227433f38189c148075b293" title="diff">D</a><a href="http://git.naquadah.org/?p=awesome.git;a=history;f=draw.h;h=56fd77139e5d2cebb02d8b2a6d0e3dde1c6b7c60" title="history">H</a>] draw.h</li>\u000a<li>[<a href="http://git.naquadah.org/?p=awesome.git;a=blobdiff;f=objects/widgets/textbox.c;fp=objects/widgets/textbox.c;h=af7ad66e80fec7b692dce7f9dadc10997822b8d9;hp=486d089923ecc76f14b5dad8e83dadf789ee0176;hb=56fd77139e5d2cebb02d8b2a6d0e3dde1c6b7c60;hpb=f61dca706846d048f227433f38189c148075b293" title="diff">D</a><a href="http://git.naquadah.org/?p=awesome.git;a=history;f=objects/widgets/textbox.c;h=56fd77139e5d2cebb02d8b2a6d0e3dde1c6b7c60" title="history">H</a>] objects/widgets/textbox.c</li>\u000a</ul>\u000a</div>
p1320
sS'updated_parsed'
p1321
g12
((I2010
I9
I2
I17
I4
I48
I3
I245
I0
t(dtRp1322
sS'published_parsed'
p1323
g12
((I2010
I9
I2
I17
I4
I48
I3
I245
I0
t(dtRp1324
sS'title'
p1325
Vdraw: Stop using a_tokenize
p1326
sS'author'
p1327
VUli Schlachter (psychon@znc.in)
p1328
sS'links'
p1329
(lp1330
g1
(g2
g3
(dp1331
S'href'
p1332
Vhttp://git.naquadah.org/?p=awesome.git;a=commitdiff;h=56fd77139e5d2cebb02d8b2a6d0e3dde1c6b7c60
p1333
sS'type'
p1334
Vtext/html
p1335
sS'rel'
p1336
Valternate
p1337
stRp1338
asS'content'
p1339
(lp1340
g1
(g2
g3
(dp1341
S'base'
p1342
Vhttp://git.naquadah.org/
p1343
sS'type'
p1344
S'application/xhtml+xml'
p1345
sS'value'
p1346
g1320
sS'language'
p1347
NstRp1348
asS'title_detail'
p1349
g1
(g2
g3
(dp1350
g1342
S'http://git.naquadah.org/?p=awesome.git;a=atom'
p1351
sg1344
S'text/html'
p1352
sg1346
g1326
sg1347
NstRp1353
sS'link'
p1354
g1333
sS'contributors'
p1355
(lp1356
g1
(g2
g3
(dp1357
S'name'
p1358
VUli Schlachter
p1359
sS'email'
p1360
Vpsychon@znc.in
p1361
stRp1362
asS'published'
p1363
V2010-09-02T17:04:48Z
p1364
sS'canto_state'
p1365
(lp1366
g661
aV*
ag662
asS'author_detail'
p1367
g1
(g2
g3
(dp1368
g1358
VUli Schlachter
p1369
sg1360
Vpsychon@znc.in
p1370
stRp1371
sS'id'
p1372
Vhttp://git.naquadah.org/?p=awesome.git;a=commitdiff;h=56fd77139e5d2cebb02d8b2a6d0e3dde1c6b7c60
p1373
stRp1374
ag1
(g2
g3
(dp1375
g1317
V2010-09-02T17:02:21Z
p1376
sg1319
V<div>\u000a<pre>\u000adbus: Stop using a_tokenize()\u000a\u000aSigned-off-by: Uli Schlachter &lt;psychon@znc.in&gt;\u000a</pre><ul>\u000a<li>[<a href="http://git.naquadah.org/?p=awesome.git;a=blobdiff;f=dbus.c;fp=dbus.c;h=5f56aaaa826c8641998ccd195d4b86fdef798f50;hp=86246160607774e821c34a82ffa930eb1662bd71;hb=f61dca706846d048f227433f38189c148075b293;hpb=f96019639d2553a4d026de9c2d5cf4e98b33b066" title="diff">D</a><a href="http://git.naquadah.org/?p=awesome.git;a=history;f=dbus.c;h=f61dca706846d048f227433f38189c148075b293" title="history">H</a>] dbus.c</li>\u000a</ul>\u000a</div>
p1377
sg1321
g12
((I2010
I9
I2
I17
I2
I21
I3
I245
I0
t(dtRp1378
sg1323
g12
((I2010
I9
I2
I17
I2
I21
I3
I245
I0
t(dtRp1379
sg1325
Vdbus: Stop using a_tokenize()
p1380
sg1327
VUli Schlachter (psychon@znc.in)
p1381
sg1329
(lp1382
g1
(g2
g3
(dp1383
S'href'
p1384
Vhttp://git.naquadah.org/?p=awesome.git;a=commitdiff;h=f61dca706846d048f227433f38189c148075b293
p1385
sS'type'
p1386
Vtext/html
p1387
sS'rel'
p1388
Valternate
p1389
stRp1390
asg1339
(lp1391
g1
(g2
g3
(dp1392
g1342
Vhttp://git.naquadah.org/
p1393
sg1344
g1345
sg1346
g1377
sg1347
NstRp1394
asS'title_detail'
p1395
g1
(g2
g3
(dp1396
g1342
S'http://git.naquadah.org/?p=awesome.git;a=atom'
p1397
sg1344
g1352
sg1346
g1380
sg1347
NstRp1398
sg1354
g1385
sg1355
(lp1399
g1
(g2
g3
(dp1400
g1358
VUli Schlachter
p1401
sg1360
Vpsychon@znc.in
p1402
stRp1403
asg1363
V2010-09-02T17:02:21Z
p1404
sg1365
(lp1405
g661
aV*
ag662
asS'author_detail'
p1406
g1
(g2
g3
(dp1407
g1358
VUli Schlachter
p1408
sg1360
Vpsychon@znc.in
p1409
stRp1410
sS'id'
p1411
Vhttp://git.naquadah.org/?p=awesome.git;a=commitdiff;h=f61dca706846d048f227433f38189c148075b293
p1412
stRp1413
ag1
(g2
g3
(dp1414
S'updated'
p1415
V2010-09-02T17:00:31Z
p1416
sS'subtitle'
p1417
V<div>\u000a<pre>\u000acommon/util.h: Stop using a_tokenize()\u000a\u000aSigned-off-by: Uli Schlachter &lt;psychon@znc.in&gt;\u000a</pre><ul>\u000a<li>[<a href="http://git.naquadah.org/?p=awesome.git;a=blobdiff;f=common/util.c;fp=common/util.c;h=b2987b705b7518884a2b6d4485195edfb59b3a96;hp=8e27dd6717fd2235db114ee4f590394a8c08f00b;hb=f96019639d2553a4d026de9c2d5cf4e98b33b066;hpb=dbe237319bcc227217ded4b24c5b56cf58a4a414" title="diff">D</a><a href="http://git.naquadah.org/?p=awesome.git;a=history;f=common/util.c;h=f96019639d2553a4d026de9c2d5cf4e98b33b066" title="history">H</a>] common/util.c</li>\u000a<li>[<a href="http://git.naquadah.org/?p=awesome.git;a=blobdiff;f=common/util.h;fp=common/util.h;h=f6af8d6176f52e87423b6cf47ee9f7f53d59d970;hp=46318269a99bdc53b687256b486eddefaaf3acf8;hb=f96019639d2553a4d026de9c2d5cf4e98b33b066;hpb=dbe237319bcc227217ded4b24c5b56cf58a4a414" title="diff">D</a><a href="http://git.naquadah.org/?p=awesome.git;a=history;f=common/util.h;h=f96019639d2553a4d026de9c2d5cf4e98b33b066" title="history">H</a>] common/util.h</li>\u000a<li>[<a href="http://git.naquadah.org/?p=awesome.git;a=blobdiff;f=objects/wibox.c;fp=objects/wibox.c;h=a36b92c62b4bc0b9fe618528498979faf4bf2924;hp=c45c0ec31a10d2ba59884752dec806fdc68eb014;hb=f96019639d2553a4d026de9c2d5cf4e98b33b066;hpb=dbe237319bcc227217ded4b24c5b56cf58a4a414" title="diff">D</a><a href="http://git.naquadah.org/?p=awesome.git;a=history;f=objects/wibox.c;h=f96019639d2553a4d026de9c2d5cf4e98b33b066" title="history">H</a>] objects/wibox.c</li>\u000a</ul>\u000a</div>
p1418
sS'updated_parsed'
p1419
g12
((I2010
I9
I2
I17
I0
I31
I3
I245
I0
t(dtRp1420
sS'published_parsed'
p1421
g12
((I2010
I9
I2
I17
I0
I31
I3
I245
I0
t(dtRp1422
sS'title'
p1423
Vcommon/util.h: Stop using a_tokenize()
p1424
sS'author'
p1425
VUli Schlachter (psychon@znc.in)
p1426
sS'links'
p1427
(lp1428
g1
(g2
g3
(dp1429
S'href'
p1430
Vhttp://git.naquadah.org/?p=awesome.git;a=commitdiff;h=f96019639d2553a4d026de9c2d5cf4e98b33b066
p1431
sS'type'
p1432
Vtext/html
p1433
sS'rel'
p1434
Valternate
p1435
stRp1436
asS'content'
p1437
(lp1438
g1
(g2
g3
(dp1439
S'base'
p1440
Vhttp://git.naquadah.org/
p1441
sS'type'
p1442
S'application/xhtml+xml'
p1443
sS'value'
p1444
g1418
sS'language'
p1445
NstRp1446
asS'title_detail'
p1447
g1
(g2
g3
(dp1448
g1440
S'http://git.naquadah.org/?p=awesome.git;a=atom'
p1449
sg1442
S'text/html'
p1450
sg1444
g1424
sg1445
NstRp1451
sS'link'
p1452
g1431
sS'contributors'
p1453
(lp1454
g1
(g2
g3
(dp1455
S'name'
p1456
VUli Schlachter
p1457
sS'email'
p1458
Vpsychon@znc.in
p1459
stRp1460
asS'published'
p1461
V2010-09-02T17:00:31Z
p1462
sS'canto_state'
p1463
(lp1464
g661
aV*
ag662
asS'author_detail'
p1465
g1
(g2
g3
(dp1466
g1456
VUli Schlachter
p1467
sg1458
Vpsychon@znc.in
p1468
stRp1469
sS'id'
p1470
Vhttp://git.naquadah.org/?p=awesome.git;a=commitdiff;h=f96019639d2553a4d026de9c2d5cf4e98b33b066
p1471
stRp1472
ag1
(g2
g3
(dp1473
S'updated'
p1474
V2010-09-02T16:57:18Z
p1475
sS'subtitle'
p1476
V<div>\u000a<pre>\u000awidget: Completely stop using a_tokenize()\u000a\u000aSigned-off-by: Uli Schlachter &lt;psychon@znc.in&gt;\u000a</pre><ul>\u000a<li>[<a href="http://git.naquadah.org/?p=awesome.git;a=blobdiff;f=objects/widget.c;fp=objects/widget.c;h=f043f47d7673dbd3edd4470c383e8f035a767deb;hp=866f8633b5c7d932a3504748ae58ee520110af8f;hb=dbe237319bcc227217ded4b24c5b56cf58a4a414;hpb=5415c5fbc41039a353c3141571d894e44e134b1e" title="diff">D</a><a href="http://git.naquadah.org/?p=awesome.git;a=history;f=objects/widget.c;h=dbe237319bcc227217ded4b24c5b56cf58a4a414" title="history">H</a>] objects/widget.c</li>\u000a</ul>\u000a</div>
p1477
sS'updated_parsed'
p1478
g12
((I2010
I9
I2
I16
I57
I18
I3
I245
I0
t(dtRp1479
sS'published_parsed'
p1480
g12
((I2010
I9
I2
I16
I57
I18
I3
I245
I0
t(dtRp1481
sS'author'
p1482
VUli Schlachter (psychon@znc.in)
p1483
sS'title'
p1484
Vwidget: Completely stop using a_tokenize()
p1485
sS'links'
p1486
(lp1487
g1
(g2
g3
(dp1488
S'href'
p1489
Vhttp://git.naquadah.org/?p=awesome.git;a=commitdiff;h=dbe237319bcc227217ded4b24c5b56cf58a4a414
p1490
sS'type'
p1491
Vtext/html
p1492
sS'rel'
p1493
Valternate
p1494
stRp1495
asS'content'
p1496
(lp1497
g1
(g2
g3
(dp1498
S'base'
p1499
Vhttp://git.naquadah.org/
p1500
sS'type'
p1501
S'application/xhtml+xml'
p1502
sS'language'
p1503
NsS'value'
p1504
g1477
stRp1505
asS'title_detail'
p1506
g1
(g2
g3
(dp1507
g1499
S'http://git.naquadah.org/?p=awesome.git;a=atom'
p1508
sg1501
S'text/html'
p1509
sg1503
Nsg1504
g1485
stRp1510
sS'link'
p1511
g1490
sS'contributors'
p1512
(lp1513
g1
(g2
g3
(dp1514
S'name'
p1515
VUli Schlachter
p1516
sS'email'
p1517
Vpsychon@znc.in
p1518
stRp1519
asS'published'
p1520
V2010-09-02T16:57:18Z
p1521
sS'canto_state'
p1522
(lp1523
g661
aV*
ag662
asS'author_detail'
p1524
g1
(g2
g3
(dp1525
g1515
VUli Schlachter
p1526
sg1517
Vpsychon@znc.in
p1527
stRp1528
sS'id'
p1529
Vhttp://git.naquadah.org/?p=awesome.git;a=commitdiff;h=dbe237319bcc227217ded4b24c5b56cf58a4a414
p1530
stRp1531
astRp1532
.