ccopy_reg
_reconstructor
p1
(ccanto.feedparser_builtin
FeedParserDict
p2
c__builtin__
dict
p3
(dp4
S'feed'
p5
g1
(g2
g3
(dp6
S'updated'
p7
V2010-09-17T00:00:00Z
p8
sS'links'
p9
(lp10
g1
(g2
g3
(dp11
S'href'
p12
Vhttp://xkcd.com/
p13
sS'type'
p14
S'text/html'
p15
sS'rel'
p16
Valternate
p17
stRp18
asS'language'
p19
Ven
p20
sS'title'
p21
Vxkcd.com
p22
sS'title_detail'
p23
g1
(g2
g3
(dp24
S'base'
p25
S'http://xkcd.com/atom.xml'
p26
sg14
S'text/plain'
p27
sg19
g20
sS'value'
p28
g22
stRp29
sS'link'
p30
g13
sS'id'
p31
Vhttp://xkcd.com/
p32
sS'updated_parsed'
p33
ctime
struct_time
p34
((I2010
I9
I17
I0
I0
I0
I4
I260
I0
t(dtRp35
stRp36
sS'status'
p37
I200
sg7
g34
((I2010
I9
I18
I0
I47
I59
I5
I261
I0
t(dtRp38
sS'encoding'
p39
S'utf-8'
p40
sS'bozo'
p41
I0
sS'entries'
p42
(lp43
g1
(g2
g3
(dp44
g7
V2010-09-17T00:00:00Z
p45
sg33
g34
((I2010
I9
I17
I0
I0
I0
I4
I260
I0
t(dtRp46
sg9
(lp47
g1
(g2
g3
(dp48
S'href'
p49
Vhttp://xkcd.com/794/
p50
sg14
g15
sS'rel'
p51
Valternate
p52
stRp53
asg21
VInside Joke
p54
sS'summary_detail'
p55
g1
(g2
g3
(dp56
g25
S'http://xkcd.com/atom.xml'
p57
sg14
S'text/html'
p58
sg19
g20
sg28
V<img src="http://imgs.xkcd.com/comics/inside_joke.png" title="I've looked through a few annotated versions of classic books, and it's shocking how much of what's in there is basically pop-culture references totally lost on us now." alt="I've looked through a few annotated versions of classic books, and it's shocking how much of what's in there is basically pop-culture references totally lost on us now." />
p59
stRp60
sS'summary'
p61
g59
sS'title_detail'
p62
g1
(g2
g3
(dp63
g25
S'http://xkcd.com/atom.xml'
p64
sg14
S'text/plain'
p65
sg19
g20
sg28
g54
stRp66
sg30
g50
sS'canto_state'
p67
(lp68
Vxkcd.com
p69
aV*
aS'read'
p70
asS'id'
p71
Vhttp://xkcd.com/794/
p72
stRp73
ag1
(g2
g3
(dp74
g7
V2010-09-15T00:00:00Z
p75
sg33
g34
((I2010
I9
I15
I0
I0
I0
I2
I258
I0
t(dtRp76
sg9
(lp77
g1
(g2
g3
(dp78
S'href'
p79
Vhttp://xkcd.com/793/
p80
sg14
g15
sS'rel'
p81
Valternate
p82
stRp83
asg21
VPhysicists
p84
sS'summary_detail'
p85
g1
(g2
g3
(dp86
g25
S'http://xkcd.com/atom.xml'
p87
sg14
g58
sg19
g20
sg28
V<img src="http://imgs.xkcd.com/comics/physicists.png" title="If you need some help with the math, let me know, but that should be enough to get you started! Huh? No, I don't need to read your thesis, I can imagine roughly what it says." alt="If you need some help with the math, let me know, but that should be enough to get you started! Huh? No, I don't need to read your thesis, I can imagine roughly what it says." />
p88
stRp89
sg61
g88
sS'title_detail'
p90
g1
(g2
g3
(dp91
g25
S'http://xkcd.com/atom.xml'
p92
sg14
S'text/plain'
p93
sg19
g20
sg28
g84
stRp94
sg30
g80
sg67
(lp95
Vxkcd.com
p96
aV*
aS'read'
p97
asS'id'
p98
Vhttp://xkcd.com/793/
p99
stRp100
ag1
(g2
g3
(dp101
g7
V2010-09-13T00:00:00Z
p102
sg33
g34
((I2010
I9
I13
I0
I0
I0
I0
I256
I0
t(dtRp103
sg9
(lp104
g1
(g2
g3
(dp105
S'href'
p106
Vhttp://xkcd.com/792/
p107
sg14
g15
sS'rel'
p108
Valternate
p109
stRp110
asg21
VPassword Reuse
p111
sS'summary_detail'
p112
g1
(g2
g3
(dp113
g25
S'http://xkcd.com/atom.xml'
p114
sg14
g58
sg19
g20
sg28
V<img src="http://imgs.xkcd.com/comics/password_reuse.png" title="It'll be hilarious the first few times this happens." alt="It'll be hilarious the first few times this happens." />
p115
stRp116
sg61
g115
sS'title_detail'
p117
g1
(g2
g3
(dp118
g25
S'http://xkcd.com/atom.xml'
p119
sg14
S'text/plain'
p120
sg19
g20
sg28
g111
stRp121
sg30
g107
sg67
(lp122
Vxkcd.com
p123
aV*
aS'read'
p124
asS'id'
p125
Vhttp://xkcd.com/792/
p126
stRp127
ag1
(g2
g3
(dp128
g7
V2010-09-10T00:00:00Z
p129
sg33
g34
((I2010
I9
I10
I0
I0
I0
I4
I253
I0
t(dtRp130
sg9
(lp131
g1
(g2
g3
(dp132
S'href'
p133
Vhttp://xkcd.com/791/
p134
sg14
g15
sS'rel'
p135
Valternate
p136
stRp137
asg21
VLeaving
p138
sS'summary_detail'
p139
g1
(g2
g3
(dp140
g25
S'http://xkcd.com/atom.xml'
p141
sg14
g58
sg19
g20
sg28
V<img src="http://imgs.xkcd.com/comics/leaving.png" title="What'll I say -- " />
p142
stRp143
sg61
g142
sS'title_detail'
p144
g1
(g2
g3
(dp145
g25
S'http://xkcd.com/atom.xml'
p146
sg14
S'text/plain'
p147
sg19
g20
sg28
g138
stRp148
sg30
g134
sg67
(lp149
Vxkcd.com
p150
aV*
aS'read'
p151
asS'id'
p152
Vhttp://xkcd.com/791/
p153
stRp154
ag1
(g2
g3
(dp155
S'summary_detail'
p156
g1
(g2
g3
(dp157
S'base'
p158
S'http://xkcd.com/atom.xml'
p159
sS'type'
p160
S'text/html'
p161
sS'value'
p162
V<img src="http://imgs.xkcd.com/comics/control.png" title="Which, at one point, led to a study showing that LSD produces no more hallucinations than a placebo." alt="Which, at one point, led to a study showing that LSD produces no more hallucinations than a placebo." />
p163
sS'language'
p164
Ven
p165
stRp166
sS'updated_parsed'
p167
g34
((I2010
I9
I8
I0
I0
I0
I2
I251
I0
t(dtRp168
sS'links'
p169
(lp170
g1
(g2
g3
(dp171
S'href'
p172
Vhttp://xkcd.com/790/
p173
sg160
S'text/html'
p174
sS'rel'
p175
Valternate
p176
stRp177
asS'title'
p178
VControl
p179
sS'updated'
p180
V2010-09-08T00:00:00Z
p181
sS'summary'
p182
g163
sS'title_detail'
p183
g1
(g2
g3
(dp184
g158
S'http://xkcd.com/atom.xml'
p185
sg160
S'text/plain'
p186
sg162
g179
sg164
g165
stRp187
sS'link'
p188
g173
sS'canto_state'
p189
(lp190
g150
aV*
ag151
asS'id'
p191
Vhttp://xkcd.com/790/
p192
stRp193
ag1
(g2
g3
(dp194
S'summary_detail'
p195
g1
(g2
g3
(dp196
S'base'
p197
S'http://xkcd.com/atom.xml'
p198
sS'type'
p199
S'text/html'
p200
sS'language'
p201
Ven
p202
sS'value'
p203
V<img src="http://imgs.xkcd.com/comics/showdown.png" title="The tumbleweed then tried to roll off into the sunset, but due to the Old West's placement north of the subtropical ridge, the prevailing winds were in the wrong direction." alt="The tumbleweed then tried to roll off into the sunset, but due to the Old West's placement north of the subtropical ridge, the prevailing winds were in the wrong direction." />
p204
stRp205
sS'updated_parsed'
p206
g34
((I2010
I9
I6
I0
I0
I0
I0
I249
I0
t(dtRp207
sS'links'
p208
(lp209
g1
(g2
g3
(dp210
S'href'
p211
Vhttp://xkcd.com/789/
p212
sg199
S'text/html'
p213
sS'rel'
p214
Valternate
p215
stRp216
asS'title'
p217
VShowdown
p218
sS'updated'
p219
V2010-09-06T00:00:00Z
p220
sS'summary'
p221
g204
sS'title_detail'
p222
g1
(g2
g3
(dp223
g197
S'http://xkcd.com/atom.xml'
p224
sg199
S'text/plain'
p225
sg201
g202
sg203
g218
stRp226
sS'link'
p227
g212
sS'canto_state'
p228
(lp229
g150
aV*
ag151
asS'id'
p230
Vhttp://xkcd.com/789/
p231
stRp232
ag1
(g2
g3
(dp233
S'summary_detail'
p234
g1
(g2
g3
(dp235
S'base'
p236
S'http://xkcd.com/atom.xml'
p237
sS'type'
p238
S'text/html'
p239
sS'value'
p240
V<img src="http://imgs.xkcd.com/comics/the_carriage.png" title="I learned from Achewood that since this poem is in ballad meter, it can be sung to the tune of Gilligan's Island.  Since then, try as I might, I haven't ONCE been able to read it normally." alt="I learned from Achewood that since this poem is in ballad meter, it can be sung to the tune of Gilligan's Island.  Since then, try as I might, I haven't ONCE been able to read it normally." />
p241
sS'language'
p242
Ven
p243
stRp244
sS'updated_parsed'
p245
g34
((I2010
I9
I3
I0
I0
I0
I4
I246
I0
t(dtRp246
sS'links'
p247
(lp248
g1
(g2
g3
(dp249
S'href'
p250
Vhttp://xkcd.com/788/
p251
sg238
S'text/html'
p252
sS'rel'
p253
Valternate
p254
stRp255
asS'title'
p256
VThe Carriage
p257
sS'updated'
p258
V2010-09-03T00:00:00Z
p259
sS'summary'
p260
g241
sS'title_detail'
p261
g1
(g2
g3
(dp262
g236
S'http://xkcd.com/atom.xml'
p263
sg238
S'text/plain'
p264
sg240
g257
sg242
g243
stRp265
sS'link'
p266
g251
sS'canto_state'
p267
(lp268
g150
aV*
ag151
asS'id'
p269
Vhttp://xkcd.com/788/
p270
stRp271
asS'canto_update'
p272
F1284903475.4820189
sS'headers'
p273
(dp274
S'content-length'
p275
S'2308'
p276
sS'accept-ranges'
p277
S'bytes'
p278
sS'vary'
p279
S'Accept-Encoding'
p280
sS'server'
p281
S'lighttpd/1.4.19'
p282
sS'last-modified'
p283
S'Sat, 18 Sep 2010 00:47:59 GMT'
p284
sS'connection'
p285
S'close'
p286
sS'etag'
p287
S'"4030074710"'
p288
sS'date'
p289
S'Sun, 19 Sep 2010 13:37:55 GMT'
p290
sS'content-type'
p291
S'application/xml'
p292
ssS'href'
p293
S'http://xkcd.com/atom.xml'
p294
sS'version'
p295
S'atom10'
p296
sg67
(lp297
sS'etag'
p298
g288
sS'namespaces'
p299
(dp300
S''
Vhttp://www.w3.org/2005/Atom
p301
ssS'canto_version'
p302
(I0
I7
I10
tp303
stRp304
.